
main.elf:     file format elf32-littlearm


Disassembly of section .text:

08000000 <g_pfnVectors>:
 8000000:	20005000 	andcs	r5, r0, r0
 8000004:	080050b1 	stmdaeq	r0, {r0, r4, r5, r7, ip, lr}
 8000008:	080050f9 	stmdaeq	r0, {r0, r3, r4, r5, r6, r7, ip, lr}
 800000c:	080050f9 	stmdaeq	r0, {r0, r3, r4, r5, r6, r7, ip, lr}
 8000010:	080050f9 	stmdaeq	r0, {r0, r3, r4, r5, r6, r7, ip, lr}
 8000014:	080050f9 	stmdaeq	r0, {r0, r3, r4, r5, r6, r7, ip, lr}
 8000018:	080050f9 	stmdaeq	r0, {r0, r3, r4, r5, r6, r7, ip, lr}
	...
 800002c:	080050f9 	stmdaeq	r0, {r0, r3, r4, r5, r6, r7, ip, lr}
 8000030:	080050f9 	stmdaeq	r0, {r0, r3, r4, r5, r6, r7, ip, lr}
 8000034:	00000000 	andeq	r0, r0, r0
 8000038:	080050f9 	stmdaeq	r0, {r0, r3, r4, r5, r6, r7, ip, lr}
 800003c:	080050f9 	stmdaeq	r0, {r0, r3, r4, r5, r6, r7, ip, lr}
 8000040:	080050f9 	stmdaeq	r0, {r0, r3, r4, r5, r6, r7, ip, lr}
 8000044:	080050f9 	stmdaeq	r0, {r0, r3, r4, r5, r6, r7, ip, lr}
 8000048:	080050f9 	stmdaeq	r0, {r0, r3, r4, r5, r6, r7, ip, lr}
 800004c:	080050f9 	stmdaeq	r0, {r0, r3, r4, r5, r6, r7, ip, lr}
 8000050:	080050f9 	stmdaeq	r0, {r0, r3, r4, r5, r6, r7, ip, lr}
 8000054:	080050f9 	stmdaeq	r0, {r0, r3, r4, r5, r6, r7, ip, lr}
 8000058:	08004e3d 	stmdaeq	r0, {r0, r2, r3, r4, r5, r9, sl, fp, lr}
 800005c:	080050f9 	stmdaeq	r0, {r0, r3, r4, r5, r6, r7, ip, lr}
 8000060:	080050f9 	stmdaeq	r0, {r0, r3, r4, r5, r6, r7, ip, lr}
 8000064:	080050f9 	stmdaeq	r0, {r0, r3, r4, r5, r6, r7, ip, lr}
 8000068:	080050f9 	stmdaeq	r0, {r0, r3, r4, r5, r6, r7, ip, lr}
 800006c:	080050f9 	stmdaeq	r0, {r0, r3, r4, r5, r6, r7, ip, lr}
 8000070:	080050f9 	stmdaeq	r0, {r0, r3, r4, r5, r6, r7, ip, lr}
 8000074:	080050f9 	stmdaeq	r0, {r0, r3, r4, r5, r6, r7, ip, lr}
 8000078:	080050f9 	stmdaeq	r0, {r0, r3, r4, r5, r6, r7, ip, lr}
 800007c:	080050f9 	stmdaeq	r0, {r0, r3, r4, r5, r6, r7, ip, lr}
 8000080:	080050f9 	stmdaeq	r0, {r0, r3, r4, r5, r6, r7, ip, lr}
 8000084:	080050f9 	stmdaeq	r0, {r0, r3, r4, r5, r6, r7, ip, lr}
 8000088:	08004ed1 	stmdaeq	r0, {r0, r4, r6, r7, r9, sl, fp, lr}
 800008c:	080050f9 	stmdaeq	r0, {r0, r3, r4, r5, r6, r7, ip, lr}
 8000090:	080050f9 	stmdaeq	r0, {r0, r3, r4, r5, r6, r7, ip, lr}
 8000094:	080050f9 	stmdaeq	r0, {r0, r3, r4, r5, r6, r7, ip, lr}
 8000098:	080050f9 	stmdaeq	r0, {r0, r3, r4, r5, r6, r7, ip, lr}
 800009c:	080050f9 	stmdaeq	r0, {r0, r3, r4, r5, r6, r7, ip, lr}
 80000a0:	080050f9 	stmdaeq	r0, {r0, r3, r4, r5, r6, r7, ip, lr}
 80000a4:	080050f9 	stmdaeq	r0, {r0, r3, r4, r5, r6, r7, ip, lr}
 80000a8:	080050f9 	stmdaeq	r0, {r0, r3, r4, r5, r6, r7, ip, lr}
 80000ac:	080050f9 	stmdaeq	r0, {r0, r3, r4, r5, r6, r7, ip, lr}
 80000b0:	080050f9 	stmdaeq	r0, {r0, r3, r4, r5, r6, r7, ip, lr}
 80000b4:	080050f9 	stmdaeq	r0, {r0, r3, r4, r5, r6, r7, ip, lr}
 80000b8:	080050f9 	stmdaeq	r0, {r0, r3, r4, r5, r6, r7, ip, lr}
 80000bc:	08004495 	stmdaeq	r0, {r0, r2, r4, r7, sl, lr}
 80000c0:	08004c6d 	stmdaeq	r0, {r0, r2, r3, r5, r6, sl, fp, lr}
 80000c4:	080050f9 	stmdaeq	r0, {r0, r3, r4, r5, r6, r7, ip, lr}
 80000c8:	080050f9 	stmdaeq	r0, {r0, r3, r4, r5, r6, r7, ip, lr}
 80000cc:	080050f9 	stmdaeq	r0, {r0, r3, r4, r5, r6, r7, ip, lr}
 80000d0:	080050f9 	stmdaeq	r0, {r0, r3, r4, r5, r6, r7, ip, lr}
 80000d4:	080050f9 	stmdaeq	r0, {r0, r3, r4, r5, r6, r7, ip, lr}
 80000d8:	080050f9 	stmdaeq	r0, {r0, r3, r4, r5, r6, r7, ip, lr}
 80000dc:	080050f9 	stmdaeq	r0, {r0, r3, r4, r5, r6, r7, ip, lr}
 80000e0:	080050f9 	stmdaeq	r0, {r0, r3, r4, r5, r6, r7, ip, lr}
 80000e4:	080050f9 	stmdaeq	r0, {r0, r3, r4, r5, r6, r7, ip, lr}
 80000e8:	080050f9 	stmdaeq	r0, {r0, r3, r4, r5, r6, r7, ip, lr}
	...
 8000108:	f108f85f 			; <UNDEFINED> instruction: 0xf108f85f

0800010c <deregister_tm_clones>:
 800010c:	b508      	push	{r3, lr}
 800010e:	4804      	ldr	r0, [pc, #16]	; (8000120 <deregister_tm_clones+0x14>)
 8000110:	4b04      	ldr	r3, [pc, #16]	; (8000124 <deregister_tm_clones+0x18>)
 8000112:	1a1b      	subs	r3, r3, r0
 8000114:	2b06      	cmp	r3, #6
 8000116:	d902      	bls.n	800011e <deregister_tm_clones+0x12>
 8000118:	4b03      	ldr	r3, [pc, #12]	; (8000128 <deregister_tm_clones+0x1c>)
 800011a:	b103      	cbz	r3, 800011e <deregister_tm_clones+0x12>
 800011c:	4798      	blx	r3
 800011e:	bd08      	pop	{r3, pc}
 8000120:	20000260 	andcs	r0, r0, r0, ror #4
 8000124:	20000263 	andcs	r0, r0, r3, ror #4
 8000128:	00000000 	andeq	r0, r0, r0

0800012c <register_tm_clones>:
 800012c:	4806      	ldr	r0, [pc, #24]	; (8000148 <register_tm_clones+0x1c>)
 800012e:	4907      	ldr	r1, [pc, #28]	; (800014c <register_tm_clones+0x20>)
 8000130:	b508      	push	{r3, lr}
 8000132:	1a09      	subs	r1, r1, r0
 8000134:	1089      	asrs	r1, r1, #2
 8000136:	2302      	movs	r3, #2
 8000138:	fb91 f1f3 	sdiv	r1, r1, r3
 800013c:	b111      	cbz	r1, 8000144 <register_tm_clones+0x18>
 800013e:	4b04      	ldr	r3, [pc, #16]	; (8000150 <register_tm_clones+0x24>)
 8000140:	b103      	cbz	r3, 8000144 <register_tm_clones+0x18>
 8000142:	4798      	blx	r3
 8000144:	bd08      	pop	{r3, pc}
 8000146:	bf00      	nop
 8000148:	20000260 	andcs	r0, r0, r0, ror #4
 800014c:	20000260 	andcs	r0, r0, r0, ror #4
 8000150:	00000000 	andeq	r0, r0, r0

08000154 <__do_global_dtors_aux>:
 8000154:	4b07      	ldr	r3, [pc, #28]	; (8000174 <__do_global_dtors_aux+0x20>)
 8000156:	b510      	push	{r4, lr}
 8000158:	781a      	ldrb	r2, [r3, #0]
 800015a:	461c      	mov	r4, r3
 800015c:	b942      	cbnz	r2, 8000170 <__do_global_dtors_aux+0x1c>
 800015e:	f7ff ffd5 	bl	800010c <deregister_tm_clones>
 8000162:	4b05      	ldr	r3, [pc, #20]	; (8000178 <__do_global_dtors_aux+0x24>)
 8000164:	b113      	cbz	r3, 800016c <__do_global_dtors_aux+0x18>
 8000166:	4805      	ldr	r0, [pc, #20]	; (800017c <__do_global_dtors_aux+0x28>)
 8000168:	f3af 8000 	nop.w
 800016c:	2301      	movs	r3, #1
 800016e:	7023      	strb	r3, [r4, #0]
 8000170:	bd10      	pop	{r4, pc}
 8000172:	bf00      	nop
 8000174:	20000260 	andcs	r0, r0, r0, ror #4
 8000178:	00000000 	andeq	r0, r0, r0
 800017c:	08011ac8 	stmdaeq	r1, {r3, r6, r7, r9, fp, ip}

08000180 <frame_dummy>:
 8000180:	b508      	push	{r3, lr}
 8000182:	4b08      	ldr	r3, [pc, #32]	; (80001a4 <frame_dummy+0x24>)
 8000184:	b11b      	cbz	r3, 800018e <frame_dummy+0xe>
 8000186:	4808      	ldr	r0, [pc, #32]	; (80001a8 <frame_dummy+0x28>)
 8000188:	4908      	ldr	r1, [pc, #32]	; (80001ac <frame_dummy+0x2c>)
 800018a:	f3af 8000 	nop.w
 800018e:	4808      	ldr	r0, [pc, #32]	; (80001b0 <frame_dummy+0x30>)
 8000190:	6803      	ldr	r3, [r0, #0]
 8000192:	b113      	cbz	r3, 800019a <frame_dummy+0x1a>
 8000194:	4b07      	ldr	r3, [pc, #28]	; (80001b4 <frame_dummy+0x34>)
 8000196:	b103      	cbz	r3, 800019a <frame_dummy+0x1a>
 8000198:	4798      	blx	r3
 800019a:	e8bd 4008 	ldmia.w	sp!, {r3, lr}
 800019e:	f7ff bfc5 	b.w	800012c <register_tm_clones>
 80001a2:	bf00      	nop
 80001a4:	00000000 	andeq	r0, r0, r0
 80001a8:	08011ac8 	stmdaeq	r1, {r3, r6, r7, r9, fp, ip}
 80001ac:	20000264 	andcs	r0, r0, r4, ror #4
 80001b0:	2000025c 	andcs	r0, r0, ip, asr r2
 80001b4:	00000000 	andeq	r0, r0, r0

080001b8 <Allocate_Sensor_Buffers>:
 80001b8:	e92d 4ff8 	stmdb	sp!, {r3, r4, r5, r6, r7, r8, r9, sl, fp, lr}
 80001bc:	4d2b      	ldr	r5, [pc, #172]	; (800026c <Allocate_Sensor_Buffers+0xb4>)
 80001be:	4604      	mov	r4, r0
 80001c0:	2600      	movs	r6, #0
 80001c2:	46aa      	mov	sl, r5
 80001c4:	e020      	b.n	8000208 <Allocate_Sensor_Buffers+0x50>
 80001c6:	fb0b 9807 	mla	r8, fp, r7, r9
 80001ca:	4621      	mov	r1, r4
 80001cc:	eb05 0008 	add.w	r0, r5, r8
 80001d0:	f001 f8de 	bl	8001390 <init_buffer>
 80001d4:	eb05 0108 	add.w	r1, r5, r8
 80001d8:	f101 0024 	add.w	r0, r1, #36	; 0x24
 80001dc:	4621      	mov	r1, r4
 80001de:	f001 f8d7 	bl	8001390 <init_buffer>
 80001e2:	f108 0248 	add.w	r2, r8, #72	; 0x48
 80001e6:	18a8      	adds	r0, r5, r2
 80001e8:	4621      	mov	r1, r4
 80001ea:	3701      	adds	r7, #1
 80001ec:	f001 f8d0 	bl	8001390 <init_buffer>
 80001f0:	2f03      	cmp	r7, #3
 80001f2:	d1e8      	bne.n	80001c6 <Allocate_Sensor_Buffers+0xe>
 80001f4:	eb0a 0309 	add.w	r3, sl, r9
 80001f8:	f103 006c 	add.w	r0, r3, #108	; 0x6c
 80001fc:	4621      	mov	r1, r4
 80001fe:	3601      	adds	r6, #1
 8000200:	f001 f8c6 	bl	8001390 <init_buffer>
 8000204:	2e02      	cmp	r6, #2
 8000206:	d006      	beq.n	8000216 <Allocate_Sensor_Buffers+0x5e>
 8000208:	2078      	movs	r0, #120	; 0x78
 800020a:	2700      	movs	r7, #0
 800020c:	f04f 0b0c 	mov.w	fp, #12
 8000210:	fb00 f906 	mul.w	r9, r0, r6
 8000214:	e7d7      	b.n	80001c6 <Allocate_Sensor_Buffers+0xe>
 8000216:	4621      	mov	r1, r4
 8000218:	4815      	ldr	r0, [pc, #84]	; (8000270 <Allocate_Sensor_Buffers+0xb8>)
 800021a:	f001 f8b9 	bl	8001390 <init_buffer>
 800021e:	270c      	movs	r7, #12
 8000220:	fb07 fa04 	mul.w	sl, r7, r4
 8000224:	ea4f 0944 	mov.w	r9, r4, lsl #1
 8000228:	4e12      	ldr	r6, [pc, #72]	; (8000274 <Allocate_Sensor_Buffers+0xbc>)
 800022a:	f8df 8050 	ldr.w	r8, [pc, #80]	; 800027c <Allocate_Sensor_Buffers+0xc4>
 800022e:	4c12      	ldr	r4, [pc, #72]	; (8000278 <Allocate_Sensor_Buffers+0xc0>)
 8000230:	2500      	movs	r5, #0
 8000232:	200c      	movs	r0, #12
 8000234:	fb00 f705 	mul.w	r7, r0, r5
 8000238:	4651      	mov	r1, sl
 800023a:	19f0      	adds	r0, r6, r7
 800023c:	f001 f8a8 	bl	8001390 <init_buffer>
 8000240:	eb06 0c07 	add.w	ip, r6, r7
 8000244:	f10c 0024 	add.w	r0, ip, #36	; 0x24
 8000248:	4649      	mov	r1, r9
 800024a:	f001 f8a1 	bl	8001390 <init_buffer>
 800024e:	21f8      	movs	r1, #248	; 0xf8
 8000250:	fb01 f705 	mul.w	r7, r1, r5
 8000254:	eb08 0007 	add.w	r0, r8, r7
 8000258:	f003 fc86 	bl	8003b68 <SampleFilter_init_190>
 800025c:	3501      	adds	r5, #1
 800025e:	19e0      	adds	r0, r4, r7
 8000260:	f003 fc4c 	bl	8003afc <SampleFilter_init_1200>
 8000264:	2d03      	cmp	r5, #3
 8000266:	d1e4      	bne.n	8000232 <Allocate_Sensor_Buffers+0x7a>
 8000268:	e8bd 8ff8 	ldmia.w	sp!, {r3, r4, r5, r6, r7, r8, r9, sl, fp, pc}
 800026c:	20000dd8 	ldrdcs	r0, [r0], -r8
 8000270:	20000ccc 	andcs	r0, r0, ip, asr #25
 8000274:	20000c84 	andcs	r0, r0, r4, lsl #25
 8000278:	200002dc 	ldrdcs	r0, [r0], -ip
 800027c:	200005c4 	andcs	r0, r0, r4, asr #11

08000280 <Configure_I2C_Driver>:
 8000280:	b538      	push	{r3, r4, r5, lr}
 8000282:	2000      	movs	r0, #0
 8000284:	4907      	ldr	r1, [pc, #28]	; (80002a4 <Configure_I2C_Driver+0x24>)
 8000286:	f004 fc51 	bl	8004b2c <I2C1_Setup_Job>
 800028a:	4d07      	ldr	r5, [pc, #28]	; (80002a8 <Configure_I2C_Driver+0x28>)
 800028c:	2400      	movs	r4, #0
 800028e:	1ca0      	adds	r0, r4, #2
 8000290:	eb05 01c4 	add.w	r1, r5, r4, lsl #3
 8000294:	b2c0      	uxtb	r0, r0
 8000296:	3401      	adds	r4, #1
 8000298:	f004 fc48 	bl	8004b2c <I2C1_Setup_Job>
 800029c:	2c08      	cmp	r4, #8
 800029e:	d1f6      	bne.n	800028e <Configure_I2C_Driver+0xe>
 80002a0:	bd38      	pop	{r3, r4, r5, pc}
 80002a2:	bf00      	nop
 80002a4:	200002bc 			; <UNDEFINED> instruction: 0x200002bc
 80002a8:	2000027c 	andcs	r0, r0, ip, ror r2

080002ac <Fill_Sample_Buffers>:
 80002ac:	e92d 4ff0 	stmdb	sp!, {r4, r5, r6, r7, r8, r9, sl, fp, lr}
 80002b0:	0083      	lsls	r3, r0, #2
 80002b2:	4607      	mov	r7, r0
 80002b4:	2078      	movs	r0, #120	; 0x78
 80002b6:	1c5a      	adds	r2, r3, #1
 80002b8:	f103 0a02 	add.w	sl, r3, #2
 80002bc:	f103 0b03 	add.w	fp, r3, #3
 80002c0:	fb00 f307 	mul.w	r3, r0, r7
 80002c4:	4e2a      	ldr	r6, [pc, #168]	; (8000370 <Fill_Sample_Buffers+0xc4>)
 80002c6:	4d2b      	ldr	r5, [pc, #172]	; (8000374 <Fill_Sample_Buffers+0xc8>)
 80002c8:	b085      	sub	sp, #20
 80002ca:	2400      	movs	r4, #0
 80002cc:	200c      	movs	r0, #12
 80002ce:	fb00 3804 	mla	r8, r0, r4, r3
 80002d2:	ea4f 0c44 	mov.w	ip, r4, lsl #1
 80002d6:	eb0c 01c2 	add.w	r1, ip, r2, lsl #3
 80002da:	5a70      	ldrh	r0, [r6, r1]
 80002dc:	eb05 0108 	add.w	r1, r5, r8
 80002e0:	9202      	str	r2, [sp, #8]
 80002e2:	9301      	str	r3, [sp, #4]
 80002e4:	f8cd c00c 	str.w	ip, [sp, #12]
 80002e8:	f001 f81e 	bl	8001328 <Add_To_Buffer>
 80002ec:	f8dd c00c 	ldr.w	ip, [sp, #12]
 80002f0:	eb05 0e08 	add.w	lr, r5, r8
 80002f4:	eb0c 02ca 	add.w	r2, ip, sl, lsl #3
 80002f8:	5ab3      	ldrh	r3, [r6, r2]
 80002fa:	3401      	adds	r4, #1
 80002fc:	0a19      	lsrs	r1, r3, #8
 80002fe:	ea41 2003 	orr.w	r0, r1, r3, lsl #8
 8000302:	b280      	uxth	r0, r0
 8000304:	f10e 0124 	add.w	r1, lr, #36	; 0x24
 8000308:	f001 f80e 	bl	8001328 <Add_To_Buffer>
 800030c:	ea4f 0ccb 	mov.w	ip, fp, lsl #3
 8000310:	eb0c 0244 	add.w	r2, ip, r4, lsl #1
 8000314:	5ab3      	ldrh	r3, [r6, r2]
 8000316:	f108 0848 	add.w	r8, r8, #72	; 0x48
 800031a:	0a19      	lsrs	r1, r3, #8
 800031c:	ea41 2003 	orr.w	r0, r1, r3, lsl #8
 8000320:	b280      	uxth	r0, r0
 8000322:	eb05 0108 	add.w	r1, r5, r8
 8000326:	f8cd c00c 	str.w	ip, [sp, #12]
 800032a:	f000 fffd 	bl	8001328 <Add_To_Buffer>
 800032e:	2c03      	cmp	r4, #3
 8000330:	f8df 903c 	ldr.w	r9, [pc, #60]	; 8000370 <Fill_Sample_Buffers+0xc4>
 8000334:	9a02      	ldr	r2, [sp, #8]
 8000336:	9b01      	ldr	r3, [sp, #4]
 8000338:	f8dd c00c 	ldr.w	ip, [sp, #12]
 800033c:	d1c6      	bne.n	80002cc <Fill_Sample_Buffers+0x20>
 800033e:	f839 000c 	ldrh.w	r0, [r9, ip]
 8000342:	490c      	ldr	r1, [pc, #48]	; (8000374 <Fill_Sample_Buffers+0xc8>)
 8000344:	ea4f 2e10 	mov.w	lr, r0, lsr #8
 8000348:	ea4e 2200 	orr.w	r2, lr, r0, lsl #8
 800034c:	18cb      	adds	r3, r1, r3
 800034e:	b290      	uxth	r0, r2
 8000350:	f103 016c 	add.w	r1, r3, #108	; 0x6c
 8000354:	f000 ffe8 	bl	8001328 <Add_To_Buffer>
 8000358:	b93f      	cbnz	r7, 800036a <Fill_Sample_Buffers+0xbe>
 800035a:	f899 0020 	ldrb.w	r0, [r9, #32]
 800035e:	4906      	ldr	r1, [pc, #24]	; (8000378 <Fill_Sample_Buffers+0xcc>)
 8000360:	b005      	add	sp, #20
 8000362:	e8bd 4ff0 	ldmia.w	sp!, {r4, r5, r6, r7, r8, r9, sl, fp, lr}
 8000366:	f000 bfdf 	b.w	8001328 <Add_To_Buffer>
 800036a:	b005      	add	sp, #20
 800036c:	e8bd 8ff0 	ldmia.w	sp!, {r4, r5, r6, r7, r8, r9, sl, fp, pc}
 8000370:	2000027c 	andcs	r0, r0, ip, ror r2
 8000374:	20000dd8 	ldrdcs	r0, [r0], -r8
 8000378:	20000ccc 	andcs	r0, r0, ip, asr #25

0800037c <IntToUnicode>:
 800037c:	f04f 0c00 	mov.w	ip, #0
 8000380:	b530      	push	{r4, r5, lr}
 8000382:	3101      	adds	r1, #1
 8000384:	4665      	mov	r5, ip
 8000386:	e00d      	b.n	80003a4 <IntToUnicode+0x28>
 8000388:	0f04      	lsrs	r4, r0, #28
 800038a:	2c09      	cmp	r4, #9
 800038c:	bf94      	ite	ls
 800038e:	3430      	addls	r4, #48	; 0x30
 8000390:	3437      	addhi	r4, #55	; 0x37
 8000392:	f10c 0301 	add.w	r3, ip, #1
 8000396:	f801 4c01 	strb.w	r4, [r1, #-1]
 800039a:	0100      	lsls	r0, r0, #4
 800039c:	f801 5b02 	strb.w	r5, [r1], #2
 80003a0:	fa5f fc83 	uxtb.w	ip, r3
 80003a4:	4594      	cmp	ip, r2
 80003a6:	d1ef      	bne.n	8000388 <IntToUnicode+0xc>
 80003a8:	bd30      	pop	{r4, r5, pc}

080003aa <Set_USBClock>:
 80003aa:	b508      	push	{r3, lr}
 80003ac:	2000      	movs	r0, #0
 80003ae:	f006 fe47 	bl	8007040 <RCC_USBCLKConfig>
 80003b2:	f44f 0000 	mov.w	r0, #8388608	; 0x800000
 80003b6:	2101      	movs	r1, #1
 80003b8:	e8bd 4008 	ldmia.w	sp!, {r3, lr}
 80003bc:	f006 bed6 	b.w	800716c <RCC_APB1PeriphClockCmd>

080003c0 <Enter_LowPowerMode>:
 80003c0:	4b01      	ldr	r3, [pc, #4]	; (80003c8 <Enter_LowPowerMode+0x8>)
 80003c2:	2203      	movs	r2, #3
 80003c4:	601a      	str	r2, [r3, #0]
 80003c6:	4770      	bx	lr
 80003c8:	20000988 	andcs	r0, r0, r8, lsl #19

080003cc <Leave_LowPowerMode>:
 80003cc:	4b04      	ldr	r3, [pc, #16]	; (80003e0 <Leave_LowPowerMode+0x14>)
 80003ce:	4805      	ldr	r0, [pc, #20]	; (80003e4 <Leave_LowPowerMode+0x18>)
 80003d0:	7a9a      	ldrb	r2, [r3, #10]
 80003d2:	b10a      	cbz	r2, 80003d8 <Leave_LowPowerMode+0xc>
 80003d4:	2105      	movs	r1, #5
 80003d6:	e000      	b.n	80003da <Leave_LowPowerMode+0xe>
 80003d8:	2101      	movs	r1, #1
 80003da:	6001      	str	r1, [r0, #0]
 80003dc:	4770      	bx	lr
 80003de:	bf00      	nop
 80003e0:	20001584 	andcs	r1, r0, r4, lsl #11
 80003e4:	20000988 	andcs	r0, r0, r8, lsl #19

080003e8 <USB_Interrupts_Config>:
 80003e8:	b513      	push	{r0, r1, r4, lr}
 80003ea:	2314      	movs	r3, #20
 80003ec:	2401      	movs	r4, #1
 80003ee:	a801      	add	r0, sp, #4
 80003f0:	f88d 3004 	strb.w	r3, [sp, #4]
 80003f4:	f88d 4005 	strb.w	r4, [sp, #5]
 80003f8:	f88d 4006 	strb.w	r4, [sp, #6]
 80003fc:	f88d 4007 	strb.w	r4, [sp, #7]
 8000400:	f005 fdf8 	bl	8005ff4 <NVIC_Init>
 8000404:	2013      	movs	r0, #19
 8000406:	f88d 0004 	strb.w	r0, [sp, #4]
 800040a:	2100      	movs	r1, #0
 800040c:	a801      	add	r0, sp, #4
 800040e:	f88d 4005 	strb.w	r4, [sp, #5]
 8000412:	f88d 1006 	strb.w	r1, [sp, #6]
 8000416:	f88d 4007 	strb.w	r4, [sp, #7]
 800041a:	f005 fdeb 	bl	8005ff4 <NVIC_Init>
 800041e:	bd1c      	pop	{r2, r3, r4, pc}

08000420 <Led_RW_ON>:
 8000420:	4802      	ldr	r0, [pc, #8]	; (800042c <Led_RW_ON+0xc>)
 8000422:	f44f 6100 	mov.w	r1, #2048	; 0x800
 8000426:	2201      	movs	r2, #1
 8000428:	f006 baad 	b.w	8006986 <GPIO_WriteBit>
 800042c:	40010c00 	andmi	r0, r1, r0, lsl #24

08000430 <Led_RW_OFF>:
 8000430:	4802      	ldr	r0, [pc, #8]	; (800043c <Led_RW_OFF+0xc>)
 8000432:	f44f 6100 	mov.w	r1, #2048	; 0x800
 8000436:	2200      	movs	r2, #0
 8000438:	f006 baa5 	b.w	8006986 <GPIO_WriteBit>
 800043c:	40010c00 	andmi	r0, r1, r0, lsl #24

08000440 <USB_Configured_LED>:
 8000440:	4802      	ldr	r0, [pc, #8]	; (800044c <USB_Configured_LED+0xc>)
 8000442:	f44f 5180 	mov.w	r1, #4096	; 0x1000
 8000446:	2201      	movs	r2, #1
 8000448:	f006 ba9d 	b.w	8006986 <GPIO_WriteBit>
 800044c:	40010c00 	andmi	r0, r1, r0, lsl #24

08000450 <USB_NotConfigured_LED>:
 8000450:	4802      	ldr	r0, [pc, #8]	; (800045c <USB_NotConfigured_LED+0xc>)
 8000452:	f44f 5180 	mov.w	r1, #4096	; 0x1000
 8000456:	2200      	movs	r2, #0
 8000458:	f006 ba95 	b.w	8006986 <GPIO_WriteBit>
 800045c:	40010c00 	andmi	r0, r1, r0, lsl #24

08000460 <USB_Cable_Config>:
 8000460:	4770      	bx	lr
	...

08000464 <Get_SerialNum>:
 8000464:	4a0a      	ldr	r2, [pc, #40]	; (8000490 <Get_SerialNum+0x2c>)
 8000466:	4b0b      	ldr	r3, [pc, #44]	; (8000494 <Get_SerialNum+0x30>)
 8000468:	1d11      	adds	r1, r2, #4
 800046a:	6818      	ldr	r0, [r3, #0]
 800046c:	b510      	push	{r4, lr}
 800046e:	6814      	ldr	r4, [r2, #0]
 8000470:	680b      	ldr	r3, [r1, #0]
 8000472:	1818      	adds	r0, r3, r0
 8000474:	d00a      	beq.n	800048c <Get_SerialNum+0x28>
 8000476:	4908      	ldr	r1, [pc, #32]	; (8000498 <Get_SerialNum+0x34>)
 8000478:	2208      	movs	r2, #8
 800047a:	f7ff ff7f 	bl	800037c <IntToUnicode>
 800047e:	4907      	ldr	r1, [pc, #28]	; (800049c <Get_SerialNum+0x38>)
 8000480:	4620      	mov	r0, r4
 8000482:	2204      	movs	r2, #4
 8000484:	e8bd 4010 	ldmia.w	sp!, {r4, lr}
 8000488:	f7ff bf78 	b.w	800037c <IntToUnicode>
 800048c:	bd10      	pop	{r4, pc}
 800048e:	bf00      	nop
 8000490:	1ffff7ec 	svcne	0x00fff7ec
 8000494:	1ffff7e8 	svcne	0x00fff7e8
 8000498:	200000f4 	strdcs	r0, [r0], -r4
 800049c:	20000104 	andcs	r0, r0, r4, lsl #2

080004a0 <MAL_Config>:
 80004a0:	2000      	movs	r0, #0
 80004a2:	f000 b803 	b.w	80004ac <MAL_Init>

080004a6 <Set_System>:
 80004a6:	f7ff bffb 	b.w	80004a0 <MAL_Config>
	...

080004ac <MAL_Init>:
 80004ac:	b538      	push	{r3, r4, r5, lr}
 80004ae:	4605      	mov	r5, r0
 80004b0:	b9a8      	cbnz	r0, 80004de <MAL_Init+0x32>
 80004b2:	f003 f84f 	bl	8003554 <disk_initialize>
 80004b6:	4b0c      	ldr	r3, [pc, #48]	; (80004e8 <MAL_Init+0x3c>)
 80004b8:	6018      	str	r0, [r3, #0]
 80004ba:	681a      	ldr	r2, [r3, #0]
 80004bc:	461c      	mov	r4, r3
 80004be:	b11a      	cbz	r2, 80004c8 <MAL_Init+0x1c>
 80004c0:	4628      	mov	r0, r5
 80004c2:	f003 f847 	bl	8003554 <disk_initialize>
 80004c6:	6020      	str	r0, [r4, #0]
 80004c8:	6820      	ldr	r0, [r4, #0]
 80004ca:	b950      	cbnz	r0, 80004e2 <MAL_Init+0x36>
 80004cc:	4d07      	ldr	r5, [pc, #28]	; (80004ec <MAL_Init+0x40>)
 80004ce:	682c      	ldr	r4, [r5, #0]
 80004d0:	b944      	cbnz	r4, 80004e4 <MAL_Init+0x38>
 80004d2:	f44f 50a0 	mov.w	r0, #5120	; 0x1400
 80004d6:	f009 fcb1 	bl	8009e3c <malloc>
 80004da:	6028      	str	r0, [r5, #0]
 80004dc:	e001      	b.n	80004e2 <MAL_Init+0x36>
 80004de:	2001      	movs	r0, #1
 80004e0:	bd38      	pop	{r3, r4, r5, pc}
 80004e2:	2000      	movs	r0, #0
 80004e4:	bd38      	pop	{r3, r4, r5, pc}
 80004e6:	bf00      	nop
 80004e8:	200008c0 	andcs	r0, r0, r0, asr #17
 80004ec:	200008b4 			; <UNDEFINED> instruction: 0x200008b4

080004f0 <MAL_Write>:
 80004f0:	b538      	push	{r3, r4, r5, lr}
 80004f2:	460d      	mov	r5, r1
 80004f4:	b980      	cbnz	r0, 8000518 <MAL_Write+0x28>
 80004f6:	4909      	ldr	r1, [pc, #36]	; (800051c <MAL_Write+0x2c>)
 80004f8:	7808      	ldrb	r0, [r1, #0]
 80004fa:	f000 04ff 	and.w	r4, r0, #255	; 0xff
 80004fe:	2800      	cmp	r0, #0
 8000500:	d1fa      	bne.n	80004f8 <MAL_Write+0x8>
 8000502:	4611      	mov	r1, r2
 8000504:	4620      	mov	r0, r4
 8000506:	0a6a      	lsrs	r2, r5, #9
 8000508:	f3c3 2347 	ubfx	r3, r3, #9, #8
 800050c:	f003 f922 	bl	8003754 <disk_write>
 8000510:	4b03      	ldr	r3, [pc, #12]	; (8000520 <MAL_Write+0x30>)
 8000512:	6018      	str	r0, [r3, #0]
 8000514:	4620      	mov	r0, r4
 8000516:	bd38      	pop	{r3, r4, r5, pc}
 8000518:	2001      	movs	r0, #1
 800051a:	bd38      	pop	{r3, r4, r5, pc}
 800051c:	200009a1 	andcs	r0, r0, r1, lsr #19
 8000520:	200008c0 	andcs	r0, r0, r0, asr #17

08000524 <MAL_Read>:
 8000524:	b510      	push	{r4, lr}
 8000526:	460c      	mov	r4, r1
 8000528:	b960      	cbnz	r0, 8000544 <MAL_Read+0x20>
 800052a:	4611      	mov	r1, r2
 800052c:	f3c3 2347 	ubfx	r3, r3, #9, #8
 8000530:	0a62      	lsrs	r2, r4, #9
 8000532:	f003 f8bf 	bl	80036b4 <disk_read>
 8000536:	4b04      	ldr	r3, [pc, #16]	; (8000548 <MAL_Read+0x24>)
 8000538:	6018      	str	r0, [r3, #0]
 800053a:	6818      	ldr	r0, [r3, #0]
 800053c:	3000      	adds	r0, #0
 800053e:	bf18      	it	ne
 8000540:	2001      	movne	r0, #1
 8000542:	bd10      	pop	{r4, pc}
 8000544:	2001      	movs	r0, #1
 8000546:	bd10      	pop	{r4, pc}
 8000548:	200008c0 	andcs	r0, r0, r0, asr #17

0800054c <MAL_GetStatus>:
 800054c:	b538      	push	{r3, r4, r5, lr}
 800054e:	b9e0      	cbnz	r0, 800058a <MAL_GetStatus+0x3e>
 8000550:	4a12      	ldr	r2, [pc, #72]	; (800059c <MAL_GetStatus+0x50>)
 8000552:	7813      	ldrb	r3, [r2, #0]
 8000554:	f003 00ff 	and.w	r0, r3, #255	; 0xff
 8000558:	2b00      	cmp	r3, #0
 800055a:	d1fa      	bne.n	8000552 <MAL_GetStatus+0x6>
 800055c:	4d10      	ldr	r5, [pc, #64]	; (80005a0 <MAL_GetStatus+0x54>)
 800055e:	2101      	movs	r1, #1
 8000560:	462a      	mov	r2, r5
 8000562:	f003 f959 	bl	8003818 <disk_ioctl>
 8000566:	4604      	mov	r4, r0
 8000568:	b9a8      	cbnz	r0, 8000596 <MAL_GetStatus+0x4a>
 800056a:	682a      	ldr	r2, [r5, #0]
 800056c:	490d      	ldr	r1, [pc, #52]	; (80005a4 <MAL_GetStatus+0x58>)
 800056e:	4b0e      	ldr	r3, [pc, #56]	; (80005a8 <MAL_GetStatus+0x5c>)
 8000570:	f44f 7000 	mov.w	r0, #512	; 0x200
 8000574:	6008      	str	r0, [r1, #0]
 8000576:	0250      	lsls	r0, r2, #9
 8000578:	6018      	str	r0, [r3, #0]
 800057a:	f44f 6100 	mov.w	r1, #2048	; 0x800
 800057e:	480b      	ldr	r0, [pc, #44]	; (80005ac <MAL_GetStatus+0x60>)
 8000580:	2201      	movs	r2, #1
 8000582:	f006 fa00 	bl	8006986 <GPIO_WriteBit>
 8000586:	4620      	mov	r0, r4
 8000588:	bd38      	pop	{r3, r4, r5, pc}
 800058a:	4808      	ldr	r0, [pc, #32]	; (80005ac <MAL_GetStatus+0x60>)
 800058c:	f44f 6100 	mov.w	r1, #2048	; 0x800
 8000590:	2200      	movs	r2, #0
 8000592:	f006 f9f8 	bl	8006986 <GPIO_WriteBit>
 8000596:	2001      	movs	r0, #1
 8000598:	bd38      	pop	{r3, r4, r5, pc}
 800059a:	bf00      	nop
 800059c:	200009a1 	andcs	r0, r0, r1, lsr #19
 80005a0:	200008cc 	andcs	r0, r0, ip, asr #17
 80005a4:	200008b8 			; <UNDEFINED> instruction: 0x200008b8
 80005a8:	200008c4 	andcs	r0, r0, r4, asr #17
 80005ac:	40010c00 	andmi	r0, r1, r0, lsl #24

080005b0 <Read_Memory>:
 80005b0:	b5f8      	push	{r3, r4, r5, r6, r7, lr}
 80005b2:	4616      	mov	r6, r2
 80005b4:	4a3f      	ldr	r2, [pc, #252]	; (80006b4 <Read_Memory+0x104>)
 80005b6:	4605      	mov	r5, r0
 80005b8:	7814      	ldrb	r4, [r2, #0]
 80005ba:	b9e4      	cbnz	r4, 80005f6 <Read_Memory+0x46>
 80005bc:	4b3e      	ldr	r3, [pc, #248]	; (80006b8 <Read_Memory+0x108>)
 80005be:	f04f 0c01 	mov.w	ip, #1
 80005c2:	f853 7020 	ldr.w	r7, [r3, r0, lsl #2]
 80005c6:	f882 c000 	strb.w	ip, [r2]
 80005ca:	4a3c      	ldr	r2, [pc, #240]	; (80006bc <Read_Memory+0x10c>)
 80005cc:	fb07 f306 	mul.w	r3, r7, r6
 80005d0:	f882 c000 	strb.w	ip, [r2]
 80005d4:	4a3a      	ldr	r2, [pc, #232]	; (80006c0 <Read_Memory+0x110>)
 80005d6:	f8df e0f8 	ldr.w	lr, [pc, #248]	; 80006d0 <Read_Memory+0x120>
 80005da:	4379      	muls	r1, r7
 80005dc:	6812      	ldr	r2, [r2, #0]
 80005de:	f8ce 3000 	str.w	r3, [lr]
 80005e2:	f7ff ff9f 	bl	8000524 <MAL_Read>
 80005e6:	2e01      	cmp	r6, #1
 80005e8:	4836      	ldr	r0, [pc, #216]	; (80006c4 <Read_Memory+0x114>)
 80005ea:	4937      	ldr	r1, [pc, #220]	; (80006c8 <Read_Memory+0x118>)
 80005ec:	bf94      	ite	ls
 80005ee:	2600      	movls	r6, #0
 80005f0:	2601      	movhi	r6, #1
 80005f2:	7006      	strb	r6, [r0, #0]
 80005f4:	600c      	str	r4, [r1, #0]
 80005f6:	4b2f      	ldr	r3, [pc, #188]	; (80006b4 <Read_Memory+0x104>)
 80005f8:	781a      	ldrb	r2, [r3, #0]
 80005fa:	2a01      	cmp	r2, #1
 80005fc:	d143      	bne.n	8000686 <Read_Memory+0xd6>
 80005fe:	4e32      	ldr	r6, [pc, #200]	; (80006c8 <Read_Memory+0x118>)
 8000600:	4f2d      	ldr	r7, [pc, #180]	; (80006b8 <Read_Memory+0x108>)
 8000602:	4832      	ldr	r0, [pc, #200]	; (80006cc <Read_Memory+0x11c>)
 8000604:	f006 f83b 	bl	800667e <DMA_GetCurrDataCounter>
 8000608:	6831      	ldr	r1, [r6, #0]
 800060a:	f06f 0c40 	mvn.w	ip, #64	; 0x40
 800060e:	f857 2025 	ldr.w	r2, [r7, r5, lsl #2]
 8000612:	ebc1 030c 	rsb	r3, r1, ip
 8000616:	1899      	adds	r1, r3, r2
 8000618:	4288      	cmp	r0, r1
 800061a:	4c2b      	ldr	r4, [pc, #172]	; (80006c8 <Read_Memory+0x118>)
 800061c:	d8f1      	bhi.n	8000602 <Read_Memory+0x52>
 800061e:	4e28      	ldr	r6, [pc, #160]	; (80006c0 <Read_Memory+0x110>)
 8000620:	6822      	ldr	r2, [r4, #0]
 8000622:	6833      	ldr	r3, [r6, #0]
 8000624:	2081      	movs	r0, #129	; 0x81
 8000626:	1899      	adds	r1, r3, r2
 8000628:	2240      	movs	r2, #64	; 0x40
 800062a:	f008 fc25 	bl	8008e78 <USB_SIL_Write>
 800062e:	6820      	ldr	r0, [r4, #0]
 8000630:	4a21      	ldr	r2, [pc, #132]	; (80006b8 <Read_Memory+0x108>)
 8000632:	f100 0140 	add.w	r1, r0, #64	; 0x40
 8000636:	6021      	str	r1, [r4, #0]
 8000638:	6823      	ldr	r3, [r4, #0]
 800063a:	f852 0025 	ldr.w	r0, [r2, r5, lsl #2]
 800063e:	4298      	cmp	r0, r3
 8000640:	d10d      	bne.n	800065e <Read_Memory+0xae>
 8000642:	f002 ff43 	bl	80034cc <wrapup_transaction>
 8000646:	4922      	ldr	r1, [pc, #136]	; (80006d0 <Read_Memory+0x120>)
 8000648:	680b      	ldr	r3, [r1, #0]
 800064a:	2b40      	cmp	r3, #64	; 0x40
 800064c:	d904      	bls.n	8000658 <Read_Memory+0xa8>
 800064e:	6830      	ldr	r0, [r6, #0]
 8000650:	f44f 7100 	mov.w	r1, #512	; 0x200
 8000654:	f002 ff54 	bl	8003500 <rcvr_datablock>
 8000658:	481b      	ldr	r0, [pc, #108]	; (80006c8 <Read_Memory+0x118>)
 800065a:	2200      	movs	r2, #0
 800065c:	6002      	str	r2, [r0, #0]
 800065e:	2001      	movs	r0, #1
 8000660:	2140      	movs	r1, #64	; 0x40
 8000662:	f008 f9db 	bl	8008a1c <SetEPTxCount>
 8000666:	2001      	movs	r0, #1
 8000668:	2130      	movs	r1, #48	; 0x30
 800066a:	f008 f821 	bl	80086b0 <SetEPTxStatus>
 800066e:	4918      	ldr	r1, [pc, #96]	; (80006d0 <Read_Memory+0x120>)
 8000670:	4818      	ldr	r0, [pc, #96]	; (80006d4 <Read_Memory+0x124>)
 8000672:	680b      	ldr	r3, [r1, #0]
 8000674:	f1a3 0240 	sub.w	r2, r3, #64	; 0x40
 8000678:	600a      	str	r2, [r1, #0]
 800067a:	6881      	ldr	r1, [r0, #8]
 800067c:	f1a1 0340 	sub.w	r3, r1, #64	; 0x40
 8000680:	6083      	str	r3, [r0, #8]
 8000682:	f7ff fecd 	bl	8000420 <Led_RW_ON>
 8000686:	4a12      	ldr	r2, [pc, #72]	; (80006d0 <Read_Memory+0x120>)
 8000688:	6810      	ldr	r0, [r2, #0]
 800068a:	b990      	cbnz	r0, 80006b2 <Read_Memory+0x102>
 800068c:	490e      	ldr	r1, [pc, #56]	; (80006c8 <Read_Memory+0x118>)
 800068e:	4a12      	ldr	r2, [pc, #72]	; (80006d8 <Read_Memory+0x128>)
 8000690:	6008      	str	r0, [r1, #0]
 8000692:	4908      	ldr	r1, [pc, #32]	; (80006b4 <Read_Memory+0x104>)
 8000694:	2303      	movs	r3, #3
 8000696:	7013      	strb	r3, [r2, #0]
 8000698:	7008      	strb	r0, [r1, #0]
 800069a:	f7ff fec9 	bl	8000430 <Led_RW_OFF>
 800069e:	4809      	ldr	r0, [pc, #36]	; (80006c4 <Read_Memory+0x114>)
 80006a0:	7803      	ldrb	r3, [r0, #0]
 80006a2:	b10b      	cbz	r3, 80006a8 <Read_Memory+0xf8>
 80006a4:	f002 ff28 	bl	80034f8 <stop_cmd>
 80006a8:	f002 ff04 	bl	80034b4 <release_spi>
 80006ac:	4903      	ldr	r1, [pc, #12]	; (80006bc <Read_Memory+0x10c>)
 80006ae:	2200      	movs	r2, #0
 80006b0:	700a      	strb	r2, [r1, #0]
 80006b2:	bdf8      	pop	{r3, r4, r5, r6, r7, pc}
 80006b4:	200008f0 	strdcs	r0, [r0], -r0	; <UNPREDICTABLE>
 80006b8:	200008b8 			; <UNDEFINED> instruction: 0x200008b8
 80006bc:	200009a1 	andcs	r0, r0, r1, lsr #19
 80006c0:	200008b4 			; <UNDEFINED> instruction: 0x200008b4
 80006c4:	200008e4 	andcs	r0, r0, r4, ror #17
 80006c8:	200008d4 	ldrdcs	r0, [r0], -r4
 80006cc:	4002001c 	andmi	r0, r2, ip, lsl r0
 80006d0:	200008d8 	ldrdcs	r0, [r0], -r8
 80006d4:	2000096c 	andcs	r0, r0, ip, ror #18
 80006d8:	20000920 	andcs	r0, r0, r0, lsr #18

080006dc <Write_Memory>:
 80006dc:	b5f8      	push	{r3, r4, r5, r6, r7, lr}
 80006de:	4b36      	ldr	r3, [pc, #216]	; (80007b8 <Write_Memory+0xdc>)
 80006e0:	4c36      	ldr	r4, [pc, #216]	; (80007bc <Write_Memory+0xe0>)
 80006e2:	681d      	ldr	r5, [r3, #0]
 80006e4:	4b36      	ldr	r3, [pc, #216]	; (80007c0 <Write_Memory+0xe4>)
 80006e6:	8826      	ldrh	r6, [r4, #0]
 80006e8:	781c      	ldrb	r4, [r3, #0]
 80006ea:	b954      	cbnz	r4, 8000702 <Write_Memory+0x26>
 80006ec:	4f35      	ldr	r7, [pc, #212]	; (80007c4 <Write_Memory+0xe8>)
 80006ee:	f857 4020 	ldr.w	r4, [r7, r0, lsl #2]
 80006f2:	4f35      	ldr	r7, [pc, #212]	; (80007c8 <Write_Memory+0xec>)
 80006f4:	4361      	muls	r1, r4
 80006f6:	4354      	muls	r4, r2
 80006f8:	4a34      	ldr	r2, [pc, #208]	; (80007cc <Write_Memory+0xf0>)
 80006fa:	6039      	str	r1, [r7, #0]
 80006fc:	2101      	movs	r1, #1
 80006fe:	6014      	str	r4, [r2, #0]
 8000700:	7019      	strb	r1, [r3, #0]
 8000702:	4b2f      	ldr	r3, [pc, #188]	; (80007c0 <Write_Memory+0xe4>)
 8000704:	781a      	ldrb	r2, [r3, #0]
 8000706:	2a01      	cmp	r2, #1
 8000708:	d140      	bne.n	800078c <Write_Memory+0xb0>
 800070a:	4a31      	ldr	r2, [pc, #196]	; (80007d0 <Write_Memory+0xf4>)
 800070c:	2700      	movs	r7, #0
 800070e:	6017      	str	r7, [r2, #0]
 8000710:	1975      	adds	r5, r6, r5
 8000712:	4b29      	ldr	r3, [pc, #164]	; (80007b8 <Write_Memory+0xdc>)
 8000714:	4e2f      	ldr	r6, [pc, #188]	; (80007d4 <Write_Memory+0xf8>)
 8000716:	4f30      	ldr	r7, [pc, #192]	; (80007d8 <Write_Memory+0xfc>)
 8000718:	e00c      	b.n	8000734 <Write_Memory+0x58>
 800071a:	6811      	ldr	r1, [r2, #0]
 800071c:	f8d3 e000 	ldr.w	lr, [r3]
 8000720:	f816 c001 	ldrb.w	ip, [r6, r1]
 8000724:	683c      	ldr	r4, [r7, #0]
 8000726:	3101      	adds	r1, #1
 8000728:	f804 c00e 	strb.w	ip, [r4, lr]
 800072c:	6011      	str	r1, [r2, #0]
 800072e:	6819      	ldr	r1, [r3, #0]
 8000730:	3101      	adds	r1, #1
 8000732:	6019      	str	r1, [r3, #0]
 8000734:	6819      	ldr	r1, [r3, #0]
 8000736:	42a9      	cmp	r1, r5
 8000738:	d3ef      	bcc.n	800071a <Write_Memory+0x3e>
 800073a:	4a24      	ldr	r2, [pc, #144]	; (80007cc <Write_Memory+0xf0>)
 800073c:	4b1f      	ldr	r3, [pc, #124]	; (80007bc <Write_Memory+0xe0>)
 800073e:	6811      	ldr	r1, [r2, #0]
 8000740:	f8b3 c000 	ldrh.w	ip, [r3]
 8000744:	ebcc 0301 	rsb	r3, ip, r1
 8000748:	6013      	str	r3, [r2, #0]
 800074a:	4a1b      	ldr	r2, [pc, #108]	; (80007b8 <Write_Memory+0xdc>)
 800074c:	6811      	ldr	r1, [r2, #0]
 800074e:	f5b1 5fa0 	cmp.w	r1, #5120	; 0x1400
 8000752:	d200      	bcs.n	8000756 <Write_Memory+0x7a>
 8000754:	b96b      	cbnz	r3, 8000772 <Write_Memory+0x96>
 8000756:	4c1c      	ldr	r4, [pc, #112]	; (80007c8 <Write_Memory+0xec>)
 8000758:	4d17      	ldr	r5, [pc, #92]	; (80007b8 <Write_Memory+0xdc>)
 800075a:	4a1f      	ldr	r2, [pc, #124]	; (80007d8 <Write_Memory+0xfc>)
 800075c:	682b      	ldr	r3, [r5, #0]
 800075e:	6821      	ldr	r1, [r4, #0]
 8000760:	6812      	ldr	r2, [r2, #0]
 8000762:	f7ff fec5 	bl	80004f0 <MAL_Write>
 8000766:	6823      	ldr	r3, [r4, #0]
 8000768:	2000      	movs	r0, #0
 800076a:	f503 51a0 	add.w	r1, r3, #5120	; 0x1400
 800076e:	6028      	str	r0, [r5, #0]
 8000770:	6021      	str	r1, [r4, #0]
 8000772:	481a      	ldr	r0, [pc, #104]	; (80007dc <Write_Memory+0x100>)
 8000774:	4a11      	ldr	r2, [pc, #68]	; (80007bc <Write_Memory+0xe0>)
 8000776:	6881      	ldr	r1, [r0, #8]
 8000778:	8813      	ldrh	r3, [r2, #0]
 800077a:	1aca      	subs	r2, r1, r3
 800077c:	6082      	str	r2, [r0, #8]
 800077e:	f44f 5140 	mov.w	r1, #12288	; 0x3000
 8000782:	2002      	movs	r0, #2
 8000784:	f007 ffac 	bl	80086e0 <SetEPRxStatus>
 8000788:	f7ff fe4a 	bl	8000420 <Led_RW_ON>
 800078c:	480f      	ldr	r0, [pc, #60]	; (80007cc <Write_Memory+0xf0>)
 800078e:	6803      	ldr	r3, [r0, #0]
 8000790:	b11b      	cbz	r3, 800079a <Write_Memory+0xbe>
 8000792:	4913      	ldr	r1, [pc, #76]	; (80007e0 <Write_Memory+0x104>)
 8000794:	780a      	ldrb	r2, [r1, #0]
 8000796:	2a04      	cmp	r2, #4
 8000798:	d10c      	bne.n	80007b4 <Write_Memory+0xd8>
 800079a:	4807      	ldr	r0, [pc, #28]	; (80007b8 <Write_Memory+0xdc>)
 800079c:	2400      	movs	r4, #0
 800079e:	6004      	str	r4, [r0, #0]
 80007a0:	2101      	movs	r1, #1
 80007a2:	4620      	mov	r0, r4
 80007a4:	f000 f844 	bl	8000830 <Set_CSW>
 80007a8:	4b05      	ldr	r3, [pc, #20]	; (80007c0 <Write_Memory+0xe4>)
 80007aa:	701c      	strb	r4, [r3, #0]
 80007ac:	e8bd 40f8 	ldmia.w	sp!, {r3, r4, r5, r6, r7, lr}
 80007b0:	f7ff be3e 	b.w	8000430 <Led_RW_OFF>
 80007b4:	bdf8      	pop	{r3, r4, r5, r6, r7, pc}
 80007b6:	bf00      	nop
 80007b8:	200008dc 	ldrdcs	r0, [r0], -ip
 80007bc:	200008fe 	strdcs	r0, [r0], -lr
 80007c0:	200008f0 	strdcs	r0, [r0], -r0	; <UNPREDICTABLE>
 80007c4:	200008b8 			; <UNDEFINED> instruction: 0x200008b8
 80007c8:	200008ec 	andcs	r0, r0, ip, ror #17
 80007cc:	200008e8 	andcs	r0, r0, r8, ror #17
 80007d0:	200008e0 	andcs	r0, r0, r0, ror #17
 80007d4:	20000928 	andcs	r0, r0, r8, lsr #18
 80007d8:	200008b4 			; <UNDEFINED> instruction: 0x200008b4
 80007dc:	2000096c 	andcs	r0, r0, ip, ror #18
 80007e0:	20000920 	andcs	r0, r0, r0, lsr #18

080007e4 <Bot_Abort.part.1>:
 80007e4:	b508      	push	{r3, lr}
 80007e6:	2001      	movs	r0, #1
 80007e8:	2110      	movs	r1, #16
 80007ea:	f007 ff61 	bl	80086b0 <SetEPTxStatus>
 80007ee:	2002      	movs	r0, #2
 80007f0:	f44f 5180 	mov.w	r1, #4096	; 0x1000
 80007f4:	e8bd 4008 	ldmia.w	sp!, {r3, lr}
 80007f8:	f007 bf72 	b.w	80086e0 <SetEPRxStatus>

080007fc <Transfer_Data_Request>:
 80007fc:	4603      	mov	r3, r0
 80007fe:	b510      	push	{r4, lr}
 8000800:	460c      	mov	r4, r1
 8000802:	4622      	mov	r2, r4
 8000804:	4619      	mov	r1, r3
 8000806:	2081      	movs	r0, #129	; 0x81
 8000808:	f008 fb36 	bl	8008e78 <USB_SIL_Write>
 800080c:	2001      	movs	r0, #1
 800080e:	2130      	movs	r1, #48	; 0x30
 8000810:	f007 ff4e 	bl	80086b0 <SetEPTxStatus>
 8000814:	4904      	ldr	r1, [pc, #16]	; (8000828 <Transfer_Data_Request+0x2c>)
 8000816:	4805      	ldr	r0, [pc, #20]	; (800082c <Transfer_Data_Request+0x30>)
 8000818:	688b      	ldr	r3, [r1, #8]
 800081a:	2203      	movs	r2, #3
 800081c:	7002      	strb	r2, [r0, #0]
 800081e:	1b1c      	subs	r4, r3, r4
 8000820:	2200      	movs	r2, #0
 8000822:	608c      	str	r4, [r1, #8]
 8000824:	730a      	strb	r2, [r1, #12]
 8000826:	bd10      	pop	{r4, pc}
 8000828:	2000096c 	andcs	r0, r0, ip, ror #18
 800082c:	20000920 	andcs	r0, r0, r0, lsr #18

08000830 <Set_CSW>:
 8000830:	b510      	push	{r4, lr}
 8000832:	4a0b      	ldr	r2, [pc, #44]	; (8000860 <Set_CSW+0x30>)
 8000834:	460c      	mov	r4, r1
 8000836:	490b      	ldr	r1, [pc, #44]	; (8000864 <Set_CSW+0x34>)
 8000838:	600a      	str	r2, [r1, #0]
 800083a:	7308      	strb	r0, [r1, #12]
 800083c:	220d      	movs	r2, #13
 800083e:	2081      	movs	r0, #129	; 0x81
 8000840:	f008 fb1a 	bl	8008e78 <USB_SIL_Write>
 8000844:	4b08      	ldr	r3, [pc, #32]	; (8000868 <Set_CSW+0x38>)
 8000846:	b914      	cbnz	r4, 800084e <Set_CSW+0x1e>
 8000848:	2005      	movs	r0, #5
 800084a:	7018      	strb	r0, [r3, #0]
 800084c:	bd10      	pop	{r4, pc}
 800084e:	2104      	movs	r1, #4
 8000850:	7019      	strb	r1, [r3, #0]
 8000852:	2001      	movs	r0, #1
 8000854:	2130      	movs	r1, #48	; 0x30
 8000856:	e8bd 4010 	ldmia.w	sp!, {r4, lr}
 800085a:	f007 bf29 	b.w	80086b0 <SetEPTxStatus>
 800085e:	bf00      	nop
 8000860:	53425355 	movtpl	r5, #9045	; 0x2355
 8000864:	2000096c 	andcs	r0, r0, ip, ror #18
 8000868:	20000920 	andcs	r0, r0, r0, lsr #18

0800086c <Mass_Storage_In>:
 800086c:	b508      	push	{r3, lr}
 800086e:	4a12      	ldr	r2, [pc, #72]	; (80008b8 <Mass_Storage_In+0x4c>)
 8000870:	7813      	ldrb	r3, [r2, #0]
 8000872:	1e98      	subs	r0, r3, #2
 8000874:	2803      	cmp	r0, #3
 8000876:	d81e      	bhi.n	80008b6 <Mass_Storage_In+0x4a>
 8000878:	e8df f000 	tbb	[pc, r0]
 800087c:	02021205 	andeq	r1, r2, #1342177280	; 0x50000000
 8000880:	2100      	movs	r1, #0
 8000882:	7011      	strb	r1, [r2, #0]
 8000884:	e010      	b.n	80008a8 <Mass_Storage_In+0x3c>
 8000886:	4b0d      	ldr	r3, [pc, #52]	; (80008bc <Mass_Storage_In+0x50>)
 8000888:	7bda      	ldrb	r2, [r3, #15]
 800088a:	2a28      	cmp	r2, #40	; 0x28
 800088c:	d113      	bne.n	80008b6 <Mass_Storage_In+0x4a>
 800088e:	7b58      	ldrb	r0, [r3, #13]
 8000890:	490b      	ldr	r1, [pc, #44]	; (80008c0 <Mass_Storage_In+0x54>)
 8000892:	4b0c      	ldr	r3, [pc, #48]	; (80008c4 <Mass_Storage_In+0x58>)
 8000894:	6809      	ldr	r1, [r1, #0]
 8000896:	681a      	ldr	r2, [r3, #0]
 8000898:	e8bd 4008 	ldmia.w	sp!, {r3, lr}
 800089c:	f000 bd0c 	b.w	80012b8 <SCSI_Read10_Cmd>
 80008a0:	2000      	movs	r0, #0
 80008a2:	2101      	movs	r1, #1
 80008a4:	f7ff ffc4 	bl	8000830 <Set_CSW>
 80008a8:	2002      	movs	r0, #2
 80008aa:	f44f 5140 	mov.w	r1, #12288	; 0x3000
 80008ae:	e8bd 4008 	ldmia.w	sp!, {r3, lr}
 80008b2:	f007 bf15 	b.w	80086e0 <SetEPRxStatus>
 80008b6:	bd08      	pop	{r3, pc}
 80008b8:	20000920 	andcs	r0, r0, r0, lsr #18
 80008bc:	20000900 	andcs	r0, r0, r0, lsl #18
 80008c0:	20000968 	andcs	r0, r0, r8, ror #18
 80008c4:	20000924 	andcs	r0, r0, r4, lsr #18

080008c8 <CBW_Decode>:
 80008c8:	b538      	push	{r3, r4, r5, lr}
 80008ca:	4b63      	ldr	r3, [pc, #396]	; (8000a58 <CBW_Decode+0x190>)
 80008cc:	f04f 0c00 	mov.w	ip, #0
 80008d0:	881a      	ldrh	r2, [r3, #0]
 80008d2:	4962      	ldr	r1, [pc, #392]	; (8000a5c <CBW_Decode+0x194>)
 80008d4:	4862      	ldr	r0, [pc, #392]	; (8000a60 <CBW_Decode+0x198>)
 80008d6:	e005      	b.n	80008e4 <CBW_Decode+0x1c>
 80008d8:	f81c 4000 	ldrb.w	r4, [ip, r0]
 80008dc:	f801 400c 	strb.w	r4, [r1, ip]
 80008e0:	f10c 0c01 	add.w	ip, ip, #1
 80008e4:	4594      	cmp	ip, r2
 80008e6:	4c5d      	ldr	r4, [pc, #372]	; (8000a5c <CBW_Decode+0x194>)
 80008e8:	d3f6      	bcc.n	80008d8 <CBW_Decode+0x10>
 80008ea:	485e      	ldr	r0, [pc, #376]	; (8000a64 <CBW_Decode+0x19c>)
 80008ec:	6861      	ldr	r1, [r4, #4]
 80008ee:	68a3      	ldr	r3, [r4, #8]
 80008f0:	2a1f      	cmp	r2, #31
 80008f2:	6041      	str	r1, [r0, #4]
 80008f4:	6083      	str	r3, [r0, #8]
 80008f6:	d00b      	beq.n	8000910 <CBW_Decode+0x48>
 80008f8:	f7ff ff74 	bl	80007e4 <Bot_Abort.part.1>
 80008fc:	2500      	movs	r5, #0
 80008fe:	7b60      	ldrb	r0, [r4, #13]
 8000900:	2105      	movs	r1, #5
 8000902:	221a      	movs	r2, #26
 8000904:	6025      	str	r5, [r4, #0]
 8000906:	f000 fbfd 	bl	8001104 <Set_Scsi_Sense_Data>
 800090a:	2001      	movs	r0, #1
 800090c:	4629      	mov	r1, r5
 800090e:	e0c9      	b.n	8000aa4 <CBW_Decode+0x1dc>
 8000910:	7be3      	ldrb	r3, [r4, #15]
 8000912:	2b28      	cmp	r3, #40	; 0x28
 8000914:	d001      	beq.n	800091a <CBW_Decode+0x52>
 8000916:	2b2a      	cmp	r3, #42	; 0x2a
 8000918:	d115      	bne.n	8000946 <CBW_Decode+0x7e>
 800091a:	4a50      	ldr	r2, [pc, #320]	; (8000a5c <CBW_Decode+0x194>)
 800091c:	f892 c012 	ldrb.w	ip, [r2, #18]
 8000920:	7c54      	ldrb	r4, [r2, #17]
 8000922:	ea4f 400c 	mov.w	r0, ip, lsl #16
 8000926:	7d11      	ldrb	r1, [r2, #20]
 8000928:	ea40 6404 	orr.w	r4, r0, r4, lsl #24
 800092c:	7cd0      	ldrb	r0, [r2, #19]
 800092e:	ea44 0c01 	orr.w	ip, r4, r1
 8000932:	494d      	ldr	r1, [pc, #308]	; (8000a68 <CBW_Decode+0x1a0>)
 8000934:	ea4c 2400 	orr.w	r4, ip, r0, lsl #8
 8000938:	7d90      	ldrb	r0, [r2, #22]
 800093a:	7dd2      	ldrb	r2, [r2, #23]
 800093c:	600c      	str	r4, [r1, #0]
 800093e:	494b      	ldr	r1, [pc, #300]	; (8000a6c <CBW_Decode+0x1a4>)
 8000940:	ea42 2400 	orr.w	r4, r2, r0, lsl #8
 8000944:	600c      	str	r4, [r1, #0]
 8000946:	4c45      	ldr	r4, [pc, #276]	; (8000a5c <CBW_Decode+0x194>)
 8000948:	4a49      	ldr	r2, [pc, #292]	; (8000a70 <CBW_Decode+0x1a8>)
 800094a:	6820      	ldr	r0, [r4, #0]
 800094c:	4290      	cmp	r0, r2
 800094e:	f040 80a0 	bne.w	8000a92 <CBW_Decode+0x1ca>
 8000952:	4948      	ldr	r1, [pc, #288]	; (8000a74 <CBW_Decode+0x1ac>)
 8000954:	7b60      	ldrb	r0, [r4, #13]
 8000956:	680a      	ldr	r2, [r1, #0]
 8000958:	4290      	cmp	r0, r2
 800095a:	d803      	bhi.n	8000964 <CBW_Decode+0x9c>
 800095c:	7ba1      	ldrb	r1, [r4, #14]
 800095e:	b109      	cbz	r1, 8000964 <CBW_Decode+0x9c>
 8000960:	2910      	cmp	r1, #16
 8000962:	d906      	bls.n	8000972 <CBW_Decode+0xaa>
 8000964:	f7ff ff3e 	bl	80007e4 <Bot_Abort.part.1>
 8000968:	4a3c      	ldr	r2, [pc, #240]	; (8000a5c <CBW_Decode+0x194>)
 800096a:	2105      	movs	r1, #5
 800096c:	7b50      	ldrb	r0, [r2, #13]
 800096e:	2224      	movs	r2, #36	; 0x24
 8000970:	e094      	b.n	8000a9c <CBW_Decode+0x1d4>
 8000972:	2b25      	cmp	r3, #37	; 0x25
 8000974:	d053      	beq.n	8000a1e <CBW_Decode+0x156>
 8000976:	d81c      	bhi.n	80009b2 <CBW_Decode+0xea>
 8000978:	2b12      	cmp	r3, #18
 800097a:	d03c      	beq.n	80009f6 <CBW_Decode+0x12e>
 800097c:	d80b      	bhi.n	8000996 <CBW_Decode+0xce>
 800097e:	2b04      	cmp	r3, #4
 8000980:	d07a      	beq.n	8000a78 <CBW_Decode+0x1b0>
 8000982:	d804      	bhi.n	800098e <CBW_Decode+0xc6>
 8000984:	2b00      	cmp	r3, #0
 8000986:	d04e      	beq.n	8000a26 <CBW_Decode+0x15e>
 8000988:	2b03      	cmp	r3, #3
 800098a:	d17d      	bne.n	8000a88 <CBW_Decode+0x1c0>
 800098c:	e02f      	b.n	80009ee <CBW_Decode+0x126>
 800098e:	2b08      	cmp	r3, #8
 8000990:	d076      	beq.n	8000a80 <CBW_Decode+0x1b8>
 8000992:	2b0a      	cmp	r3, #10
 8000994:	e029      	b.n	80009ea <CBW_Decode+0x122>
 8000996:	2b1b      	cmp	r3, #27
 8000998:	d031      	beq.n	80009fe <CBW_Decode+0x136>
 800099a:	d804      	bhi.n	80009a6 <CBW_Decode+0xde>
 800099c:	2b15      	cmp	r3, #21
 800099e:	d06f      	beq.n	8000a80 <CBW_Decode+0x1b8>
 80009a0:	2b1a      	cmp	r3, #26
 80009a2:	d171      	bne.n	8000a88 <CBW_Decode+0x1c0>
 80009a4:	e02f      	b.n	8000a06 <CBW_Decode+0x13e>
 80009a6:	2b1e      	cmp	r3, #30
 80009a8:	d029      	beq.n	80009fe <CBW_Decode+0x136>
 80009aa:	2b23      	cmp	r3, #35	; 0x23
 80009ac:	d033      	beq.n	8000a16 <CBW_Decode+0x14e>
 80009ae:	2b1d      	cmp	r3, #29
 80009b0:	e01b      	b.n	80009ea <CBW_Decode+0x122>
 80009b2:	2b88      	cmp	r3, #136	; 0x88
 80009b4:	d064      	beq.n	8000a80 <CBW_Decode+0x1b8>
 80009b6:	d80c      	bhi.n	80009d2 <CBW_Decode+0x10a>
 80009b8:	2b2f      	cmp	r3, #47	; 0x2f
 80009ba:	d048      	beq.n	8000a4e <CBW_Decode+0x186>
 80009bc:	d804      	bhi.n	80009c8 <CBW_Decode+0x100>
 80009be:	2b28      	cmp	r3, #40	; 0x28
 80009c0:	d035      	beq.n	8000a2e <CBW_Decode+0x166>
 80009c2:	2b2a      	cmp	r3, #42	; 0x2a
 80009c4:	d160      	bne.n	8000a88 <CBW_Decode+0x1c0>
 80009c6:	e03a      	b.n	8000a3e <CBW_Decode+0x176>
 80009c8:	2b55      	cmp	r3, #85	; 0x55
 80009ca:	d059      	beq.n	8000a80 <CBW_Decode+0x1b8>
 80009cc:	2b5a      	cmp	r3, #90	; 0x5a
 80009ce:	d15b      	bne.n	8000a88 <CBW_Decode+0x1c0>
 80009d0:	e01d      	b.n	8000a0e <CBW_Decode+0x146>
 80009d2:	2b9e      	cmp	r3, #158	; 0x9e
 80009d4:	d054      	beq.n	8000a80 <CBW_Decode+0x1b8>
 80009d6:	d803      	bhi.n	80009e0 <CBW_Decode+0x118>
 80009d8:	2b8a      	cmp	r3, #138	; 0x8a
 80009da:	d051      	beq.n	8000a80 <CBW_Decode+0x1b8>
 80009dc:	2b8f      	cmp	r3, #143	; 0x8f
 80009de:	e004      	b.n	80009ea <CBW_Decode+0x122>
 80009e0:	2baa      	cmp	r3, #170	; 0xaa
 80009e2:	d04d      	beq.n	8000a80 <CBW_Decode+0x1b8>
 80009e4:	2baf      	cmp	r3, #175	; 0xaf
 80009e6:	d04b      	beq.n	8000a80 <CBW_Decode+0x1b8>
 80009e8:	2ba8      	cmp	r3, #168	; 0xa8
 80009ea:	d14d      	bne.n	8000a88 <CBW_Decode+0x1c0>
 80009ec:	e048      	b.n	8000a80 <CBW_Decode+0x1b8>
 80009ee:	e8bd 4038 	ldmia.w	sp!, {r3, r4, r5, lr}
 80009f2:	f000 bb7b 	b.w	80010ec <SCSI_RequestSense_Cmd>
 80009f6:	e8bd 4038 	ldmia.w	sp!, {r3, r4, r5, lr}
 80009fa:	f000 bae5 	b.w	8000fc8 <SCSI_Inquiry_Cmd>
 80009fe:	e8bd 4038 	ldmia.w	sp!, {r3, r4, r5, lr}
 8000a02:	f000 bb85 	b.w	8001110 <SCSI_Start_Stop_Unit_Cmd>
 8000a06:	e8bd 4038 	ldmia.w	sp!, {r3, r4, r5, lr}
 8000a0a:	f000 bb63 	b.w	80010d4 <SCSI_ModeSense6_Cmd>
 8000a0e:	e8bd 4038 	ldmia.w	sp!, {r3, r4, r5, lr}
 8000a12:	f000 bb65 	b.w	80010e0 <SCSI_ModeSense10_Cmd>
 8000a16:	e8bd 4038 	ldmia.w	sp!, {r3, r4, r5, lr}
 8000a1a:	f000 baf1 	b.w	8001000 <SCSI_ReadFormatCapacity_Cmd>
 8000a1e:	e8bd 4038 	ldmia.w	sp!, {r3, r4, r5, lr}
 8000a22:	f000 bb21 	b.w	8001068 <SCSI_ReadCapacity10_Cmd>
 8000a26:	e8bd 4038 	ldmia.w	sp!, {r3, r4, r5, lr}
 8000a2a:	f000 bb93 	b.w	8001154 <SCSI_TestUnitReady_Cmd>
 8000a2e:	4b0f      	ldr	r3, [pc, #60]	; (8000a6c <CBW_Decode+0x1a4>)
 8000a30:	490d      	ldr	r1, [pc, #52]	; (8000a68 <CBW_Decode+0x1a0>)
 8000a32:	681a      	ldr	r2, [r3, #0]
 8000a34:	6809      	ldr	r1, [r1, #0]
 8000a36:	e8bd 4038 	ldmia.w	sp!, {r3, r4, r5, lr}
 8000a3a:	f000 bc3d 	b.w	80012b8 <SCSI_Read10_Cmd>
 8000a3e:	4b0a      	ldr	r3, [pc, #40]	; (8000a68 <CBW_Decode+0x1a0>)
 8000a40:	4a0a      	ldr	r2, [pc, #40]	; (8000a6c <CBW_Decode+0x1a4>)
 8000a42:	6819      	ldr	r1, [r3, #0]
 8000a44:	6812      	ldr	r2, [r2, #0]
 8000a46:	e8bd 4038 	ldmia.w	sp!, {r3, r4, r5, lr}
 8000a4a:	f000 bbfd 	b.w	8001248 <SCSI_Write10_Cmd>
 8000a4e:	e8bd 4038 	ldmia.w	sp!, {r3, r4, r5, lr}
 8000a52:	f000 bb61 	b.w	8001118 <SCSI_Verify10_Cmd>
 8000a56:	bf00      	nop
 8000a58:	200008fe 	strdcs	r0, [r0], -lr
 8000a5c:	20000900 	andcs	r0, r0, r0, lsl #18
 8000a60:	20000928 	andcs	r0, r0, r8, lsr #18
 8000a64:	2000096c 	andcs	r0, r0, ip, ror #18
 8000a68:	20000968 	andcs	r0, r0, r8, ror #18
 8000a6c:	20000924 	andcs	r0, r0, r4, lsr #18
 8000a70:	43425355 	movtmi	r5, #9045	; 0x2355
 8000a74:	20000980 	andcs	r0, r0, r0, lsl #19
 8000a78:	e8bd 4038 	ldmia.w	sp!, {r3, r4, r5, lr}
 8000a7c:	f000 bb84 	b.w	8001188 <SCSI_Format_Cmd>
 8000a80:	e8bd 4038 	ldmia.w	sp!, {r3, r4, r5, lr}
 8000a84:	f000 bb8c 	b.w	80011a0 <SCSI_Invalid_Cmd>
 8000a88:	f7ff feac 	bl	80007e4 <Bot_Abort.part.1>
 8000a8c:	4807      	ldr	r0, [pc, #28]	; (8000aac <CBW_Decode+0x1e4>)
 8000a8e:	7b40      	ldrb	r0, [r0, #13]
 8000a90:	e002      	b.n	8000a98 <CBW_Decode+0x1d0>
 8000a92:	f7ff fea7 	bl	80007e4 <Bot_Abort.part.1>
 8000a96:	7b60      	ldrb	r0, [r4, #13]
 8000a98:	2105      	movs	r1, #5
 8000a9a:	2220      	movs	r2, #32
 8000a9c:	f000 fb32 	bl	8001104 <Set_Scsi_Sense_Data>
 8000aa0:	2001      	movs	r0, #1
 8000aa2:	2100      	movs	r1, #0
 8000aa4:	e8bd 4038 	ldmia.w	sp!, {r3, r4, r5, lr}
 8000aa8:	f7ff bec2 	b.w	8000830 <Set_CSW>
 8000aac:	20000900 	andcs	r0, r0, r0, lsl #18

08000ab0 <Bot_Abort>:
 8000ab0:	2801      	cmp	r0, #1
 8000ab2:	d007      	beq.n	8000ac4 <Bot_Abort+0x14>
 8000ab4:	d302      	bcc.n	8000abc <Bot_Abort+0xc>
 8000ab6:	2802      	cmp	r0, #2
 8000ab8:	d10b      	bne.n	8000ad2 <Bot_Abort+0x22>
 8000aba:	e008      	b.n	8000ace <Bot_Abort+0x1e>
 8000abc:	2001      	movs	r0, #1
 8000abe:	2110      	movs	r1, #16
 8000ac0:	f007 bdf6 	b.w	80086b0 <SetEPTxStatus>
 8000ac4:	2002      	movs	r0, #2
 8000ac6:	f44f 5180 	mov.w	r1, #4096	; 0x1000
 8000aca:	f007 be09 	b.w	80086e0 <SetEPRxStatus>
 8000ace:	f7ff be89 	b.w	80007e4 <Bot_Abort.part.1>
 8000ad2:	4770      	bx	lr

08000ad4 <Mass_Storage_Out>:
 8000ad4:	b538      	push	{r3, r4, r5, lr}
 8000ad6:	4c16      	ldr	r4, [pc, #88]	; (8000b30 <Mass_Storage_Out+0x5c>)
 8000ad8:	2002      	movs	r0, #2
 8000ada:	4916      	ldr	r1, [pc, #88]	; (8000b34 <Mass_Storage_Out+0x60>)
 8000adc:	7be5      	ldrb	r5, [r4, #15]
 8000ade:	f008 f9df 	bl	8008ea0 <USB_SIL_Read>
 8000ae2:	4b15      	ldr	r3, [pc, #84]	; (8000b38 <Mass_Storage_Out+0x64>)
 8000ae4:	8018      	strh	r0, [r3, #0]
 8000ae6:	4815      	ldr	r0, [pc, #84]	; (8000b3c <Mass_Storage_Out+0x68>)
 8000ae8:	7800      	ldrb	r0, [r0, #0]
 8000aea:	b110      	cbz	r0, 8000af2 <Mass_Storage_Out+0x1e>
 8000aec:	2801      	cmp	r0, #1
 8000aee:	d112      	bne.n	8000b16 <Mass_Storage_Out+0x42>
 8000af0:	e003      	b.n	8000afa <Mass_Storage_Out+0x26>
 8000af2:	e8bd 4038 	ldmia.w	sp!, {r3, r4, r5, lr}
 8000af6:	f7ff bee7 	b.w	80008c8 <CBW_Decode>
 8000afa:	2d2a      	cmp	r5, #42	; 0x2a
 8000afc:	d108      	bne.n	8000b10 <Mass_Storage_Out+0x3c>
 8000afe:	4910      	ldr	r1, [pc, #64]	; (8000b40 <Mass_Storage_Out+0x6c>)
 8000b00:	4a10      	ldr	r2, [pc, #64]	; (8000b44 <Mass_Storage_Out+0x70>)
 8000b02:	7b60      	ldrb	r0, [r4, #13]
 8000b04:	6809      	ldr	r1, [r1, #0]
 8000b06:	6812      	ldr	r2, [r2, #0]
 8000b08:	e8bd 4038 	ldmia.w	sp!, {r3, r4, r5, lr}
 8000b0c:	f000 bb9c 	b.w	8001248 <SCSI_Write10_Cmd>
 8000b10:	f7ff ffce 	bl	8000ab0 <Bot_Abort>
 8000b14:	e001      	b.n	8000b1a <Mass_Storage_Out+0x46>
 8000b16:	f7ff fe65 	bl	80007e4 <Bot_Abort.part.1>
 8000b1a:	7b60      	ldrb	r0, [r4, #13]
 8000b1c:	2105      	movs	r1, #5
 8000b1e:	2224      	movs	r2, #36	; 0x24
 8000b20:	f000 faf0 	bl	8001104 <Set_Scsi_Sense_Data>
 8000b24:	2002      	movs	r0, #2
 8000b26:	2100      	movs	r1, #0
 8000b28:	e8bd 4038 	ldmia.w	sp!, {r3, r4, r5, lr}
 8000b2c:	f7ff be80 	b.w	8000830 <Set_CSW>
 8000b30:	20000900 	andcs	r0, r0, r0, lsl #18
 8000b34:	20000928 	andcs	r0, r0, r8, lsr #18
 8000b38:	200008fe 	strdcs	r0, [r0], -lr
 8000b3c:	20000920 	andcs	r0, r0, r0, lsr #18
 8000b40:	20000968 	andcs	r0, r0, r8, ror #18
 8000b44:	20000924 	andcs	r0, r0, r4, lsr #18

08000b48 <EP1_IN_Callback>:
 8000b48:	f7ff be90 	b.w	800086c <Mass_Storage_In>

08000b4c <EP2_OUT_Callback>:
 8000b4c:	f7ff bfc2 	b.w	8000ad4 <Mass_Storage_Out>

08000b50 <USB_Istr>:
 8000b50:	b538      	push	{r3, r4, r5, lr}
 8000b52:	4b34      	ldr	r3, [pc, #208]	; (8000c24 <USB_Istr+0xd4>)
 8000b54:	4c34      	ldr	r4, [pc, #208]	; (8000c28 <USB_Istr+0xd8>)
 8000b56:	681a      	ldr	r2, [r3, #0]
 8000b58:	4b34      	ldr	r3, [pc, #208]	; (8000c2c <USB_Istr+0xdc>)
 8000b5a:	b290      	uxth	r0, r2
 8000b5c:	8020      	strh	r0, [r4, #0]
 8000b5e:	8825      	ldrh	r5, [r4, #0]
 8000b60:	8819      	ldrh	r1, [r3, #0]
 8000b62:	ea05 0201 	and.w	r2, r5, r1
 8000b66:	f412 4f00 	tst.w	r2, #32768	; 0x8000
 8000b6a:	4625      	mov	r5, r4
 8000b6c:	461c      	mov	r4, r3
 8000b6e:	d001      	beq.n	8000b74 <USB_Istr+0x24>
 8000b70:	f007 fbea 	bl	8008348 <CTR_LP>
 8000b74:	8828      	ldrh	r0, [r5, #0]
 8000b76:	f8b4 c000 	ldrh.w	ip, [r4]
 8000b7a:	ea00 030c 	and.w	r3, r0, ip
 8000b7e:	0558      	lsls	r0, r3, #21
 8000b80:	d506      	bpl.n	8000b90 <USB_Istr+0x40>
 8000b82:	4a28      	ldr	r2, [pc, #160]	; (8000c24 <USB_Istr+0xd4>)
 8000b84:	4c2a      	ldr	r4, [pc, #168]	; (8000c30 <USB_Istr+0xe0>)
 8000b86:	f64f 31ff 	movw	r1, #64511	; 0xfbff
 8000b8a:	6011      	str	r1, [r2, #0]
 8000b8c:	6860      	ldr	r0, [r4, #4]
 8000b8e:	4780      	blx	r0
 8000b90:	4b25      	ldr	r3, [pc, #148]	; (8000c28 <USB_Istr+0xd8>)
 8000b92:	4926      	ldr	r1, [pc, #152]	; (8000c2c <USB_Istr+0xdc>)
 8000b94:	f8b3 c000 	ldrh.w	ip, [r3]
 8000b98:	880a      	ldrh	r2, [r1, #0]
 8000b9a:	ea0c 0402 	and.w	r4, ip, r2
 8000b9e:	f414 5f80 	tst.w	r4, #4096	; 0x1000
 8000ba2:	461c      	mov	r4, r3
 8000ba4:	d006      	beq.n	8000bb4 <USB_Istr+0x64>
 8000ba6:	4b1f      	ldr	r3, [pc, #124]	; (8000c24 <USB_Istr+0xd4>)
 8000ba8:	f64e 70ff 	movw	r0, #61439	; 0xefff
 8000bac:	6018      	str	r0, [r3, #0]
 8000bae:	2000      	movs	r0, #0
 8000bb0:	f000 f9c4 	bl	8000f3c <Resume>
 8000bb4:	4a1d      	ldr	r2, [pc, #116]	; (8000c2c <USB_Istr+0xdc>)
 8000bb6:	8821      	ldrh	r1, [r4, #0]
 8000bb8:	8810      	ldrh	r0, [r2, #0]
 8000bba:	ea01 0c00 	and.w	ip, r1, r0
 8000bbe:	ea5f 510c 	movs.w	r1, ip, lsl #20
 8000bc2:	d50c      	bpl.n	8000bde <USB_Istr+0x8e>
 8000bc4:	4b1b      	ldr	r3, [pc, #108]	; (8000c34 <USB_Istr+0xe4>)
 8000bc6:	7819      	ldrb	r1, [r3, #0]
 8000bc8:	b111      	cbz	r1, 8000bd0 <USB_Istr+0x80>
 8000bca:	f000 f977 	bl	8000ebc <Suspend>
 8000bce:	e002      	b.n	8000bd6 <USB_Istr+0x86>
 8000bd0:	2002      	movs	r0, #2
 8000bd2:	f000 f9b3 	bl	8000f3c <Resume>
 8000bd6:	4813      	ldr	r0, [pc, #76]	; (8000c24 <USB_Istr+0xd4>)
 8000bd8:	f24f 72ff 	movw	r2, #63487	; 0xf7ff
 8000bdc:	6002      	str	r2, [r0, #0]
 8000bde:	4b12      	ldr	r3, [pc, #72]	; (8000c28 <USB_Istr+0xd8>)
 8000be0:	4a12      	ldr	r2, [pc, #72]	; (8000c2c <USB_Istr+0xdc>)
 8000be2:	8819      	ldrh	r1, [r3, #0]
 8000be4:	8810      	ldrh	r0, [r2, #0]
 8000be6:	ea00 0301 	and.w	r3, r0, r1
 8000bea:	059a      	lsls	r2, r3, #22
 8000bec:	d50a      	bpl.n	8000c04 <USB_Istr+0xb4>
 8000bee:	4a0d      	ldr	r2, [pc, #52]	; (8000c24 <USB_Istr+0xd4>)
 8000bf0:	f64f 51ff 	movw	r1, #65023	; 0xfdff
 8000bf4:	4b10      	ldr	r3, [pc, #64]	; (8000c38 <USB_Istr+0xe8>)
 8000bf6:	6011      	str	r1, [r2, #0]
 8000bf8:	f893 c000 	ldrb.w	ip, [r3]
 8000bfc:	f10c 0101 	add.w	r1, ip, #1
 8000c00:	b2ca      	uxtb	r2, r1
 8000c02:	701a      	strb	r2, [r3, #0]
 8000c04:	4b08      	ldr	r3, [pc, #32]	; (8000c28 <USB_Istr+0xd8>)
 8000c06:	8819      	ldrh	r1, [r3, #0]
 8000c08:	4008      	ands	r0, r1
 8000c0a:	05c3      	lsls	r3, r0, #23
 8000c0c:	d508      	bpl.n	8000c20 <USB_Istr+0xd0>
 8000c0e:	4b05      	ldr	r3, [pc, #20]	; (8000c24 <USB_Istr+0xd4>)
 8000c10:	f64f 62ff 	movw	r2, #65279	; 0xfeff
 8000c14:	2007      	movs	r0, #7
 8000c16:	601a      	str	r2, [r3, #0]
 8000c18:	e8bd 4038 	ldmia.w	sp!, {r3, r4, r5, lr}
 8000c1c:	f000 b98e 	b.w	8000f3c <Resume>
 8000c20:	bd38      	pop	{r3, r4, r5, pc}
 8000c22:	bf00      	nop
 8000c24:	40005c44 	andmi	r5, r0, r4, asr #24
 8000c28:	2000097e 	andcs	r0, r0, lr, ror r9
 8000c2c:	200015a8 	andcs	r1, r0, r8, lsr #11
 8000c30:	2000014c 	andcs	r0, r0, ip, asr #2
 8000c34:	200001d2 	ldrdcs	r0, [r0], -r2
 8000c38:	2000097c 	andcs	r0, r0, ip, ror r9

08000c3c <Mass_Storage_SetDeviceAddress>:
 8000c3c:	4b01      	ldr	r3, [pc, #4]	; (8000c44 <Mass_Storage_SetDeviceAddress+0x8>)
 8000c3e:	2204      	movs	r2, #4
 8000c40:	601a      	str	r2, [r3, #0]
 8000c42:	4770      	bx	lr
 8000c44:	20000988 	andcs	r0, r0, r8, lsl #19

08000c48 <MASS_Status_In>:
 8000c48:	4770      	bx	lr

08000c4a <MASS_Status_Out>:
 8000c4a:	4770      	bx	lr

08000c4c <MASS_Get_Interface_Setting>:
 8000c4c:	b109      	cbz	r1, 8000c52 <MASS_Get_Interface_Setting+0x6>
 8000c4e:	2002      	movs	r0, #2
 8000c50:	4770      	bx	lr
 8000c52:	2800      	cmp	r0, #0
 8000c54:	d1fb      	bne.n	8000c4e <MASS_Get_Interface_Setting+0x2>
 8000c56:	4770      	bx	lr

08000c58 <Get_Max_Lun>:
 8000c58:	b920      	cbnz	r0, 8000c64 <Get_Max_Lun+0xc>
 8000c5a:	4b03      	ldr	r3, [pc, #12]	; (8000c68 <Get_Max_Lun+0x10>)
 8000c5c:	2201      	movs	r2, #1
 8000c5e:	6819      	ldr	r1, [r3, #0]
 8000c60:	820a      	strh	r2, [r1, #16]
 8000c62:	4770      	bx	lr
 8000c64:	4801      	ldr	r0, [pc, #4]	; (8000c6c <Get_Max_Lun+0x14>)
 8000c66:	4770      	bx	lr
 8000c68:	200015a4 	andcs	r1, r0, r4, lsr #11
 8000c6c:	20000980 	andcs	r0, r0, r0, lsl #19

08000c70 <MASS_GetStringDescriptor>:
 8000c70:	4b05      	ldr	r3, [pc, #20]	; (8000c88 <MASS_GetStringDescriptor+0x18>)
 8000c72:	6819      	ldr	r1, [r3, #0]
 8000c74:	78ca      	ldrb	r2, [r1, #3]
 8000c76:	2a05      	cmp	r2, #5
 8000c78:	d804      	bhi.n	8000c84 <MASS_GetStringDescriptor+0x14>
 8000c7a:	4b04      	ldr	r3, [pc, #16]	; (8000c8c <MASS_GetStringDescriptor+0x1c>)
 8000c7c:	eb03 01c2 	add.w	r1, r3, r2, lsl #3
 8000c80:	f007 b882 	b.w	8007d88 <Standard_GetDescriptorData>
 8000c84:	2000      	movs	r0, #0
 8000c86:	4770      	bx	lr
 8000c88:	200015a4 	andcs	r1, r0, r4, lsr #11
 8000c8c:	200001a8 	andcs	r0, r0, r8, lsr #3

08000c90 <MASS_GetConfigDescriptor>:
 8000c90:	4901      	ldr	r1, [pc, #4]	; (8000c98 <MASS_GetConfigDescriptor+0x8>)
 8000c92:	f007 b879 	b.w	8007d88 <Standard_GetDescriptorData>
 8000c96:	bf00      	nop
 8000c98:	20000144 	andcs	r0, r0, r4, asr #2

08000c9c <MASS_GetDeviceDescriptor>:
 8000c9c:	4901      	ldr	r1, [pc, #4]	; (8000ca4 <MASS_GetDeviceDescriptor+0x8>)
 8000c9e:	f007 b873 	b.w	8007d88 <Standard_GetDescriptorData>
 8000ca2:	bf00      	nop
 8000ca4:	200001a0 	andcs	r0, r0, r0, lsr #3

08000ca8 <Mass_Storage_ClearFeature>:
 8000ca8:	4b04      	ldr	r3, [pc, #16]	; (8000cbc <Mass_Storage_ClearFeature+0x14>)
 8000caa:	4805      	ldr	r0, [pc, #20]	; (8000cc0 <Mass_Storage_ClearFeature+0x18>)
 8000cac:	681a      	ldr	r2, [r3, #0]
 8000cae:	4282      	cmp	r2, r0
 8000cb0:	d002      	beq.n	8000cb8 <Mass_Storage_ClearFeature+0x10>
 8000cb2:	2002      	movs	r0, #2
 8000cb4:	f7ff befc 	b.w	8000ab0 <Bot_Abort>
 8000cb8:	4770      	bx	lr
 8000cba:	bf00      	nop
 8000cbc:	20000900 	andcs	r0, r0, r0, lsl #18
 8000cc0:	43425355 	movtmi	r5, #9045	; 0x2355

08000cc4 <MASS_Reset>:
 8000cc4:	4a32      	ldr	r2, [pc, #200]	; (8000d90 <MASS_Reset+0xcc>)
 8000cc6:	4833      	ldr	r0, [pc, #204]	; (8000d94 <MASS_Reset+0xd0>)
 8000cc8:	b538      	push	{r3, r4, r5, lr}
 8000cca:	6801      	ldr	r1, [r0, #0]
 8000ccc:	79d5      	ldrb	r5, [r2, #7]
 8000cce:	4b32      	ldr	r3, [pc, #200]	; (8000d98 <MASS_Reset+0xd4>)
 8000cd0:	2400      	movs	r4, #0
 8000cd2:	724d      	strb	r5, [r1, #9]
 8000cd4:	4620      	mov	r0, r4
 8000cd6:	729c      	strb	r4, [r3, #10]
 8000cd8:	f007 fcb2 	bl	8008640 <SetBTABLE>
 8000cdc:	4620      	mov	r0, r4
 8000cde:	f44f 7100 	mov.w	r1, #512	; 0x200
 8000ce2:	f007 fccf 	bl	8008684 <SetEPType>
 8000ce6:	4d2d      	ldr	r5, [pc, #180]	; (8000d9c <MASS_Reset+0xd8>)
 8000ce8:	4620      	mov	r0, r4
 8000cea:	2120      	movs	r1, #32
 8000cec:	f007 fce0 	bl	80086b0 <SetEPTxStatus>
 8000cf0:	4620      	mov	r0, r4
 8000cf2:	2118      	movs	r1, #24
 8000cf4:	f007 fe5e 	bl	80089b4 <SetEPRxAddr>
 8000cf8:	4620      	mov	r0, r4
 8000cfa:	f895 102c 	ldrb.w	r1, [r5, #44]	; 0x2c
 8000cfe:	f007 feb1 	bl	8008a64 <SetEPRxCount>
 8000d02:	2158      	movs	r1, #88	; 0x58
 8000d04:	4620      	mov	r0, r4
 8000d06:	f007 fe43 	bl	8008990 <SetEPTxAddr>
 8000d0a:	4620      	mov	r0, r4
 8000d0c:	f007 fd6c 	bl	80087e8 <Clear_Status_Out>
 8000d10:	4620      	mov	r0, r4
 8000d12:	f007 fd37 	bl	8008784 <SetEPRxValid>
 8000d16:	4621      	mov	r1, r4
 8000d18:	2001      	movs	r0, #1
 8000d1a:	f007 fcb3 	bl	8008684 <SetEPType>
 8000d1e:	2001      	movs	r0, #1
 8000d20:	2198      	movs	r1, #152	; 0x98
 8000d22:	f007 fe35 	bl	8008990 <SetEPTxAddr>
 8000d26:	2001      	movs	r0, #1
 8000d28:	2120      	movs	r1, #32
 8000d2a:	f007 fcc1 	bl	80086b0 <SetEPTxStatus>
 8000d2e:	4621      	mov	r1, r4
 8000d30:	2001      	movs	r0, #1
 8000d32:	f007 fcd5 	bl	80086e0 <SetEPRxStatus>
 8000d36:	4621      	mov	r1, r4
 8000d38:	2002      	movs	r0, #2
 8000d3a:	f007 fca3 	bl	8008684 <SetEPType>
 8000d3e:	2002      	movs	r0, #2
 8000d40:	21d8      	movs	r1, #216	; 0xd8
 8000d42:	f007 fe37 	bl	80089b4 <SetEPRxAddr>
 8000d46:	f895 102c 	ldrb.w	r1, [r5, #44]	; 0x2c
 8000d4a:	2002      	movs	r0, #2
 8000d4c:	f007 fe8a 	bl	8008a64 <SetEPRxCount>
 8000d50:	2002      	movs	r0, #2
 8000d52:	f44f 5140 	mov.w	r1, #12288	; 0x3000
 8000d56:	f007 fcc3 	bl	80086e0 <SetEPRxStatus>
 8000d5a:	4621      	mov	r1, r4
 8000d5c:	2002      	movs	r0, #2
 8000d5e:	f007 fca7 	bl	80086b0 <SetEPTxStatus>
 8000d62:	f895 102c 	ldrb.w	r1, [r5, #44]	; 0x2c
 8000d66:	4620      	mov	r0, r4
 8000d68:	f007 fe7c 	bl	8008a64 <SetEPRxCount>
 8000d6c:	4620      	mov	r0, r4
 8000d6e:	f007 fd09 	bl	8008784 <SetEPRxValid>
 8000d72:	4620      	mov	r0, r4
 8000d74:	f007 fa70 	bl	8008258 <SetDeviceAddress>
 8000d78:	4b09      	ldr	r3, [pc, #36]	; (8000da0 <MASS_Reset+0xdc>)
 8000d7a:	2001      	movs	r0, #1
 8000d7c:	6018      	str	r0, [r3, #0]
 8000d7e:	4909      	ldr	r1, [pc, #36]	; (8000da4 <MASS_Reset+0xe0>)
 8000d80:	4a09      	ldr	r2, [pc, #36]	; (8000da8 <MASS_Reset+0xe4>)
 8000d82:	480a      	ldr	r0, [pc, #40]	; (8000dac <MASS_Reset+0xe8>)
 8000d84:	6011      	str	r1, [r2, #0]
 8000d86:	7004      	strb	r4, [r0, #0]
 8000d88:	e8bd 4038 	ldmia.w	sp!, {r3, r4, r5, lr}
 8000d8c:	f7ff bb60 	b.w	8000450 <USB_NotConfigured_LED>
 8000d90:	08009f98 	stmdaeq	r0, {r3, r4, r7, r8, r9, sl, fp, ip, pc}
 8000d94:	200015a4 	andcs	r1, r0, r4, lsr #11
 8000d98:	20001584 	andcs	r1, r0, r4, lsl #11
 8000d9c:	2000014c 	andcs	r0, r0, ip, asr #2
 8000da0:	20000988 	andcs	r0, r0, r8, lsl #19
 8000da4:	43425355 	movtmi	r5, #9045	; 0x2355
 8000da8:	20000900 	andcs	r0, r0, r0, lsl #18
 8000dac:	20000920 	andcs	r0, r0, r0, lsr #18

08000db0 <MASS_init>:
 8000db0:	b510      	push	{r4, lr}
 8000db2:	f7ff fb57 	bl	8000464 <Get_SerialNum>
 8000db6:	4b05      	ldr	r3, [pc, #20]	; (8000dcc <MASS_init+0x1c>)
 8000db8:	2400      	movs	r4, #0
 8000dba:	6818      	ldr	r0, [r3, #0]
 8000dbc:	7284      	strb	r4, [r0, #10]
 8000dbe:	f000 f865 	bl	8000e8c <PowerOn>
 8000dc2:	f008 f843 	bl	8008e4c <USB_SIL_Init>
 8000dc6:	4902      	ldr	r1, [pc, #8]	; (8000dd0 <MASS_init+0x20>)
 8000dc8:	600c      	str	r4, [r1, #0]
 8000dca:	bd10      	pop	{r4, pc}
 8000dcc:	200015a4 	andcs	r1, r0, r4, lsr #11
 8000dd0:	20000988 	andcs	r0, r0, r8, lsl #19

08000dd4 <MASS_NoData_Setup>:
 8000dd4:	b510      	push	{r4, lr}
 8000dd6:	4b0e      	ldr	r3, [pc, #56]	; (8000e10 <MASS_NoData_Setup+0x3c>)
 8000dd8:	6819      	ldr	r1, [r3, #0]
 8000dda:	780a      	ldrb	r2, [r1, #0]
 8000ddc:	f002 037f 	and.w	r3, r2, #127	; 0x7f
 8000de0:	2b21      	cmp	r3, #33	; 0x21
 8000de2:	d112      	bne.n	8000e0a <MASS_NoData_Setup+0x36>
 8000de4:	28ff      	cmp	r0, #255	; 0xff
 8000de6:	d110      	bne.n	8000e0a <MASS_NoData_Setup+0x36>
 8000de8:	8848      	ldrh	r0, [r1, #2]
 8000dea:	b970      	cbnz	r0, 8000e0a <MASS_NoData_Setup+0x36>
 8000dec:	684c      	ldr	r4, [r1, #4]
 8000dee:	b964      	cbnz	r4, 8000e0a <MASS_NoData_Setup+0x36>
 8000df0:	2001      	movs	r0, #1
 8000df2:	f007 fda1 	bl	8008938 <ClearDTOG_TX>
 8000df6:	2002      	movs	r0, #2
 8000df8:	f007 fd8c 	bl	8008914 <ClearDTOG_RX>
 8000dfc:	4905      	ldr	r1, [pc, #20]	; (8000e14 <MASS_NoData_Setup+0x40>)
 8000dfe:	4a06      	ldr	r2, [pc, #24]	; (8000e18 <MASS_NoData_Setup+0x44>)
 8000e00:	4b06      	ldr	r3, [pc, #24]	; (8000e1c <MASS_NoData_Setup+0x48>)
 8000e02:	6011      	str	r1, [r2, #0]
 8000e04:	701c      	strb	r4, [r3, #0]
 8000e06:	4620      	mov	r0, r4
 8000e08:	bd10      	pop	{r4, pc}
 8000e0a:	2002      	movs	r0, #2
 8000e0c:	bd10      	pop	{r4, pc}
 8000e0e:	bf00      	nop
 8000e10:	200015a4 	andcs	r1, r0, r4, lsr #11
 8000e14:	43425355 	movtmi	r5, #9045	; 0x2355
 8000e18:	20000900 	andcs	r0, r0, r0, lsl #18
 8000e1c:	20000920 	andcs	r0, r0, r0, lsr #18

08000e20 <Mass_Storage_SetConfiguration>:
 8000e20:	b508      	push	{r3, lr}
 8000e22:	4b08      	ldr	r3, [pc, #32]	; (8000e44 <Mass_Storage_SetConfiguration+0x24>)
 8000e24:	6818      	ldr	r0, [r3, #0]
 8000e26:	7a81      	ldrb	r1, [r0, #10]
 8000e28:	b159      	cbz	r1, 8000e42 <Mass_Storage_SetConfiguration+0x22>
 8000e2a:	4b07      	ldr	r3, [pc, #28]	; (8000e48 <Mass_Storage_SetConfiguration+0x28>)
 8000e2c:	2205      	movs	r2, #5
 8000e2e:	2001      	movs	r0, #1
 8000e30:	601a      	str	r2, [r3, #0]
 8000e32:	f007 fd81 	bl	8008938 <ClearDTOG_TX>
 8000e36:	2002      	movs	r0, #2
 8000e38:	f007 fd6c 	bl	8008914 <ClearDTOG_RX>
 8000e3c:	4903      	ldr	r1, [pc, #12]	; (8000e4c <Mass_Storage_SetConfiguration+0x2c>)
 8000e3e:	2000      	movs	r0, #0
 8000e40:	7008      	strb	r0, [r1, #0]
 8000e42:	bd08      	pop	{r3, pc}
 8000e44:	200015a4 	andcs	r1, r0, r4, lsr #11
 8000e48:	20000988 	andcs	r0, r0, r8, lsl #19
 8000e4c:	20000920 	andcs	r0, r0, r0, lsr #18

08000e50 <MASS_Data_Setup>:
 8000e50:	4b0c      	ldr	r3, [pc, #48]	; (8000e84 <MASS_Data_Setup+0x34>)
 8000e52:	6819      	ldr	r1, [r3, #0]
 8000e54:	780a      	ldrb	r2, [r1, #0]
 8000e56:	f002 037f 	and.w	r3, r2, #127	; 0x7f
 8000e5a:	2b21      	cmp	r3, #33	; 0x21
 8000e5c:	d10f      	bne.n	8000e7e <MASS_Data_Setup+0x2e>
 8000e5e:	28fe      	cmp	r0, #254	; 0xfe
 8000e60:	d10d      	bne.n	8000e7e <MASS_Data_Setup+0x2e>
 8000e62:	8848      	ldrh	r0, [r1, #2]
 8000e64:	b958      	cbnz	r0, 8000e7e <MASS_Data_Setup+0x2e>
 8000e66:	684a      	ldr	r2, [r1, #4]
 8000e68:	f5b2 3f80 	cmp.w	r2, #65536	; 0x10000
 8000e6c:	d107      	bne.n	8000e7e <MASS_Data_Setup+0x2e>
 8000e6e:	4b06      	ldr	r3, [pc, #24]	; (8000e88 <MASS_Data_Setup+0x38>)
 8000e70:	f04f 0c01 	mov.w	ip, #1
 8000e74:	618b      	str	r3, [r1, #24]
 8000e76:	8248      	strh	r0, [r1, #18]
 8000e78:	f8a1 c010 	strh.w	ip, [r1, #16]
 8000e7c:	4770      	bx	lr
 8000e7e:	2002      	movs	r0, #2
 8000e80:	4770      	bx	lr
 8000e82:	bf00      	nop
 8000e84:	200015a4 	andcs	r1, r0, r4, lsr #11
 8000e88:	08000c59 	stmdaeq	r0, {r0, r3, r4, r6, sl, fp}

08000e8c <PowerOn>:
 8000e8c:	b508      	push	{r3, lr}
 8000e8e:	2001      	movs	r0, #1
 8000e90:	f7ff fae6 	bl	8000460 <USB_Cable_Config>
 8000e94:	4b06      	ldr	r3, [pc, #24]	; (8000eb0 <PowerOn+0x24>)
 8000e96:	4907      	ldr	r1, [pc, #28]	; (8000eb4 <PowerOn+0x28>)
 8000e98:	2000      	movs	r0, #0
 8000e9a:	2201      	movs	r2, #1
 8000e9c:	601a      	str	r2, [r3, #0]
 8000e9e:	6018      	str	r0, [r3, #0]
 8000ea0:	6008      	str	r0, [r1, #0]
 8000ea2:	4905      	ldr	r1, [pc, #20]	; (8000eb8 <PowerOn+0x2c>)
 8000ea4:	f44f 52e0 	mov.w	r2, #7168	; 0x1c00
 8000ea8:	800a      	strh	r2, [r1, #0]
 8000eaa:	601a      	str	r2, [r3, #0]
 8000eac:	bd08      	pop	{r3, pc}
 8000eae:	bf00      	nop
 8000eb0:	40005c40 	andmi	r5, r0, r0, asr #24
 8000eb4:	40005c44 	andmi	r5, r0, r4, asr #24
 8000eb8:	200015a8 	andcs	r1, r0, r8, lsr #11

08000ebc <Suspend>:
 8000ebc:	b510      	push	{r4, lr}
 8000ebe:	4c0d      	ldr	r4, [pc, #52]	; (8000ef4 <Suspend+0x38>)
 8000ec0:	f44f 6100 	mov.w	r1, #2048	; 0x800
 8000ec4:	4620      	mov	r0, r4
 8000ec6:	2200      	movs	r2, #0
 8000ec8:	f005 fd5d 	bl	8006986 <GPIO_WriteBit>
 8000ecc:	4620      	mov	r0, r4
 8000ece:	2104      	movs	r1, #4
 8000ed0:	2200      	movs	r2, #0
 8000ed2:	f005 fd58 	bl	8006986 <GPIO_WriteBit>
 8000ed6:	4b08      	ldr	r3, [pc, #32]	; (8000ef8 <Suspend+0x3c>)
 8000ed8:	681a      	ldr	r2, [r3, #0]
 8000eda:	b290      	uxth	r0, r2
 8000edc:	f040 0108 	orr.w	r1, r0, #8
 8000ee0:	6019      	str	r1, [r3, #0]
 8000ee2:	681a      	ldr	r2, [r3, #0]
 8000ee4:	b290      	uxth	r0, r2
 8000ee6:	f040 0104 	orr.w	r1, r0, #4
 8000eea:	6019      	str	r1, [r3, #0]
 8000eec:	e8bd 4010 	ldmia.w	sp!, {r4, lr}
 8000ef0:	f7ff ba66 	b.w	80003c0 <Enter_LowPowerMode>
 8000ef4:	40010c00 	andmi	r0, r1, r0, lsl #24
 8000ef8:	40005c40 	andmi	r5, r0, r0, asr #24

08000efc <Resume_Init>:
 8000efc:	b510      	push	{r4, lr}
 8000efe:	4c0d      	ldr	r4, [pc, #52]	; (8000f34 <Resume_Init+0x38>)
 8000f00:	f64f 73fb 	movw	r3, #65531	; 0xfffb
 8000f04:	6822      	ldr	r2, [r4, #0]
 8000f06:	ea02 0003 	and.w	r0, r2, r3
 8000f0a:	6020      	str	r0, [r4, #0]
 8000f0c:	f7ff fa5e 	bl	80003cc <Leave_LowPowerMode>
 8000f10:	f44f 411f 	mov.w	r1, #40704	; 0x9f00
 8000f14:	6021      	str	r1, [r4, #0]
 8000f16:	4c08      	ldr	r4, [pc, #32]	; (8000f38 <Resume_Init+0x3c>)
 8000f18:	2104      	movs	r1, #4
 8000f1a:	4620      	mov	r0, r4
 8000f1c:	2201      	movs	r2, #1
 8000f1e:	f005 fd32 	bl	8006986 <GPIO_WriteBit>
 8000f22:	4620      	mov	r0, r4
 8000f24:	f44f 6100 	mov.w	r1, #2048	; 0x800
 8000f28:	2201      	movs	r2, #1
 8000f2a:	e8bd 4010 	ldmia.w	sp!, {r4, lr}
 8000f2e:	f005 bd2a 	b.w	8006986 <GPIO_WriteBit>
 8000f32:	bf00      	nop
 8000f34:	40005c40 	andmi	r5, r0, r0, asr #24
 8000f38:	40010c00 	andmi	r0, r1, r0, lsl #24

08000f3c <Resume>:
 8000f3c:	b510      	push	{r4, lr}
 8000f3e:	4c20      	ldr	r4, [pc, #128]	; (8000fc0 <Resume+0x84>)
 8000f40:	2807      	cmp	r0, #7
 8000f42:	bf18      	it	ne
 8000f44:	7020      	strbne	r0, [r4, #0]
 8000f46:	7823      	ldrb	r3, [r4, #0]
 8000f48:	2b05      	cmp	r3, #5
 8000f4a:	d836      	bhi.n	8000fba <Resume+0x7e>
 8000f4c:	e8df f003 	tbb	[pc, r3]
 8000f50:	0e0a0603 	cfmadd32eq	mvax0, mvfx0, mvfx10, mvfx3
 8000f54:	f7ff2418 			; <UNDEFINED> instruction: 0xf7ff2418
 8000f58:	ffd1 e02e 	vaddl.u16	q15, d1, d30
 8000f5c:	f7ff ffce 	bl	8000efc <Resume_Init>
 8000f60:	2104      	movs	r1, #4
 8000f62:	e02b      	b.n	8000fbc <Resume+0x80>
 8000f64:	2002      	movs	r0, #2
 8000f66:	7060      	strb	r0, [r4, #1]
 8000f68:	2103      	movs	r1, #3
 8000f6a:	e027      	b.n	8000fbc <Resume+0x80>
 8000f6c:	f894 c001 	ldrb.w	ip, [r4, #1]
 8000f70:	f10c 30ff 	add.w	r0, ip, #4294967295
 8000f74:	b2c1      	uxtb	r1, r0
 8000f76:	7061      	strb	r1, [r4, #1]
 8000f78:	7862      	ldrb	r2, [r4, #1]
 8000f7a:	bb02      	cbnz	r2, 8000fbe <Resume+0x82>
 8000f7c:	2004      	movs	r0, #4
 8000f7e:	e019      	b.n	8000fb4 <Resume+0x78>
 8000f80:	4910      	ldr	r1, [pc, #64]	; (8000fc4 <Resume+0x88>)
 8000f82:	680a      	ldr	r2, [r1, #0]
 8000f84:	b293      	uxth	r3, r2
 8000f86:	f043 0010 	orr.w	r0, r3, #16
 8000f8a:	6008      	str	r0, [r1, #0]
 8000f8c:	490c      	ldr	r1, [pc, #48]	; (8000fc0 <Resume+0x84>)
 8000f8e:	2205      	movs	r2, #5
 8000f90:	230a      	movs	r3, #10
 8000f92:	700a      	strb	r2, [r1, #0]
 8000f94:	704b      	strb	r3, [r1, #1]
 8000f96:	bd10      	pop	{r4, pc}
 8000f98:	7860      	ldrb	r0, [r4, #1]
 8000f9a:	1e41      	subs	r1, r0, #1
 8000f9c:	b2ca      	uxtb	r2, r1
 8000f9e:	7062      	strb	r2, [r4, #1]
 8000fa0:	7863      	ldrb	r3, [r4, #1]
 8000fa2:	b963      	cbnz	r3, 8000fbe <Resume+0x82>
 8000fa4:	4807      	ldr	r0, [pc, #28]	; (8000fc4 <Resume+0x88>)
 8000fa6:	f64f 72ef 	movw	r2, #65519	; 0xffef
 8000faa:	6801      	ldr	r1, [r0, #0]
 8000fac:	ea01 0302 	and.w	r3, r1, r2
 8000fb0:	6003      	str	r3, [r0, #0]
 8000fb2:	2006      	movs	r0, #6
 8000fb4:	4b02      	ldr	r3, [pc, #8]	; (8000fc0 <Resume+0x84>)
 8000fb6:	7018      	strb	r0, [r3, #0]
 8000fb8:	bd10      	pop	{r4, pc}
 8000fba:	2106      	movs	r1, #6
 8000fbc:	7021      	strb	r1, [r4, #0]
 8000fbe:	bd10      	pop	{r4, pc}
 8000fc0:	20000984 	andcs	r0, r0, r4, lsl #19
 8000fc4:	40005c40 	andmi	r5, r0, r0, asr #24

08000fc8 <SCSI_Inquiry_Cmd>:
 8000fc8:	4b09      	ldr	r3, [pc, #36]	; (8000ff0 <SCSI_Inquiry_Cmd+0x28>)
 8000fca:	7c1a      	ldrb	r2, [r3, #16]
 8000fcc:	07d2      	lsls	r2, r2, #31
 8000fce:	d40a      	bmi.n	8000fe6 <SCSI_Inquiry_Cmd+0x1e>
 8000fd0:	4908      	ldr	r1, [pc, #32]	; (8000ff4 <SCSI_Inquiry_Cmd+0x2c>)
 8000fd2:	4a09      	ldr	r2, [pc, #36]	; (8000ff8 <SCSI_Inquiry_Cmd+0x30>)
 8000fd4:	2800      	cmp	r0, #0
 8000fd6:	bf14      	ite	ne
 8000fd8:	4608      	movne	r0, r1
 8000fda:	4610      	moveq	r0, r2
 8000fdc:	7cd9      	ldrb	r1, [r3, #19]
 8000fde:	2924      	cmp	r1, #36	; 0x24
 8000fe0:	bf28      	it	cs
 8000fe2:	2124      	movcs	r1, #36	; 0x24
 8000fe4:	e001      	b.n	8000fea <SCSI_Inquiry_Cmd+0x22>
 8000fe6:	4805      	ldr	r0, [pc, #20]	; (8000ffc <SCSI_Inquiry_Cmd+0x34>)
 8000fe8:	2105      	movs	r1, #5
 8000fea:	f7ff bc07 	b.w	80007fc <Transfer_Data_Request>
 8000fee:	bf00      	nop
 8000ff0:	20000900 	andcs	r0, r0, r0, lsl #18
 8000ff4:	200000aa 	andcs	r0, r0, sl, lsr #1
 8000ff8:	200000ce 	andcs	r0, r0, lr, asr #1
 8000ffc:	200008f9 	strdcs	r0, [r0], -r9

08001000 <SCSI_ReadFormatCapacity_Cmd>:
 8001000:	b510      	push	{r4, lr}
 8001002:	4604      	mov	r4, r0
 8001004:	f7ff faa2 	bl	800054c <MAL_GetStatus>
 8001008:	b168      	cbz	r0, 8001026 <SCSI_ReadFormatCapacity_Cmd+0x26>
 800100a:	4813      	ldr	r0, [pc, #76]	; (8001058 <SCSI_ReadFormatCapacity_Cmd+0x58>)
 800100c:	2302      	movs	r3, #2
 800100e:	223a      	movs	r2, #58	; 0x3a
 8001010:	7083      	strb	r3, [r0, #2]
 8001012:	7302      	strb	r2, [r0, #12]
 8001014:	2001      	movs	r0, #1
 8001016:	4601      	mov	r1, r0
 8001018:	f7ff fc0a 	bl	8000830 <Set_CSW>
 800101c:	2000      	movs	r0, #0
 800101e:	e8bd 4010 	ldmia.w	sp!, {r4, lr}
 8001022:	f7ff bd45 	b.w	8000ab0 <Bot_Abort>
 8001026:	4b0d      	ldr	r3, [pc, #52]	; (800105c <SCSI_ReadFormatCapacity_Cmd+0x5c>)
 8001028:	480d      	ldr	r0, [pc, #52]	; (8001060 <SCSI_ReadFormatCapacity_Cmd+0x60>)
 800102a:	f853 1024 	ldr.w	r1, [r3, r4, lsl #2]
 800102e:	0e0a      	lsrs	r2, r1, #24
 8001030:	0c0b      	lsrs	r3, r1, #16
 8001032:	7102      	strb	r2, [r0, #4]
 8001034:	71c1      	strb	r1, [r0, #7]
 8001036:	0a0a      	lsrs	r2, r1, #8
 8001038:	490a      	ldr	r1, [pc, #40]	; (8001064 <SCSI_ReadFormatCapacity_Cmd+0x64>)
 800103a:	7143      	strb	r3, [r0, #5]
 800103c:	f851 3024 	ldr.w	r3, [r1, r4, lsl #2]
 8001040:	7182      	strb	r2, [r0, #6]
 8001042:	0a19      	lsrs	r1, r3, #8
 8001044:	0c1a      	lsrs	r2, r3, #16
 8001046:	7281      	strb	r1, [r0, #10]
 8001048:	210c      	movs	r1, #12
 800104a:	7242      	strb	r2, [r0, #9]
 800104c:	72c3      	strb	r3, [r0, #11]
 800104e:	e8bd 4010 	ldmia.w	sp!, {r4, lr}
 8001052:	f7ff bbd3 	b.w	80007fc <Transfer_Data_Request>
 8001056:	bf00      	nop
 8001058:	20000088 	andcs	r0, r0, r8, lsl #1
 800105c:	200008cc 	andcs	r0, r0, ip, asr #17
 8001060:	2000009e 	mulcs	r0, lr, r0
 8001064:	200008b8 			; <UNDEFINED> instruction: 0x200008b8

08001068 <SCSI_ReadCapacity10_Cmd>:
 8001068:	b510      	push	{r4, lr}
 800106a:	4604      	mov	r4, r0
 800106c:	f7ff fa6e 	bl	800054c <MAL_GetStatus>
 8001070:	b168      	cbz	r0, 800108e <SCSI_ReadCapacity10_Cmd+0x26>
 8001072:	4814      	ldr	r0, [pc, #80]	; (80010c4 <SCSI_ReadCapacity10_Cmd+0x5c>)
 8001074:	2302      	movs	r3, #2
 8001076:	213a      	movs	r1, #58	; 0x3a
 8001078:	7083      	strb	r3, [r0, #2]
 800107a:	7301      	strb	r1, [r0, #12]
 800107c:	2001      	movs	r0, #1
 800107e:	4601      	mov	r1, r0
 8001080:	f7ff fbd6 	bl	8000830 <Set_CSW>
 8001084:	2000      	movs	r0, #0
 8001086:	e8bd 4010 	ldmia.w	sp!, {r4, lr}
 800108a:	f7ff bd11 	b.w	8000ab0 <Bot_Abort>
 800108e:	4b0e      	ldr	r3, [pc, #56]	; (80010c8 <SCSI_ReadCapacity10_Cmd+0x60>)
 8001090:	f853 0024 	ldr.w	r0, [r3, r4, lsl #2]
 8001094:	1e41      	subs	r1, r0, #1
 8001096:	480d      	ldr	r0, [pc, #52]	; (80010cc <SCSI_ReadCapacity10_Cmd+0x64>)
 8001098:	0e0a      	lsrs	r2, r1, #24
 800109a:	0c0b      	lsrs	r3, r1, #16
 800109c:	7002      	strb	r2, [r0, #0]
 800109e:	70c1      	strb	r1, [r0, #3]
 80010a0:	0a0a      	lsrs	r2, r1, #8
 80010a2:	490b      	ldr	r1, [pc, #44]	; (80010d0 <SCSI_ReadCapacity10_Cmd+0x68>)
 80010a4:	7043      	strb	r3, [r0, #1]
 80010a6:	f851 3024 	ldr.w	r3, [r1, r4, lsl #2]
 80010aa:	7082      	strb	r2, [r0, #2]
 80010ac:	0c19      	lsrs	r1, r3, #16
 80010ae:	0e1a      	lsrs	r2, r3, #24
 80010b0:	7102      	strb	r2, [r0, #4]
 80010b2:	7141      	strb	r1, [r0, #5]
 80010b4:	0a1a      	lsrs	r2, r3, #8
 80010b6:	2108      	movs	r1, #8
 80010b8:	7182      	strb	r2, [r0, #6]
 80010ba:	71c3      	strb	r3, [r0, #7]
 80010bc:	e8bd 4010 	ldmia.w	sp!, {r4, lr}
 80010c0:	f7ff bb9c 	b.w	80007fc <Transfer_Data_Request>
 80010c4:	20000088 	andcs	r0, r0, r8, lsl #1
 80010c8:	200008cc 	andcs	r0, r0, ip, asr #17
 80010cc:	200008f1 	strdcs	r0, [r0], -r1
 80010d0:	200008b8 			; <UNDEFINED> instruction: 0x200008b8

080010d4 <SCSI_ModeSense6_Cmd>:
 80010d4:	4801      	ldr	r0, [pc, #4]	; (80010dc <SCSI_ModeSense6_Cmd+0x8>)
 80010d6:	2104      	movs	r1, #4
 80010d8:	f7ff bb90 	b.w	80007fc <Transfer_Data_Request>
 80010dc:	2000009a 	mulcs	r0, sl, r0

080010e0 <SCSI_ModeSense10_Cmd>:
 80010e0:	4801      	ldr	r0, [pc, #4]	; (80010e8 <SCSI_ModeSense10_Cmd+0x8>)
 80010e2:	2108      	movs	r1, #8
 80010e4:	f7ff bb8a 	b.w	80007fc <Transfer_Data_Request>
 80010e8:	20000080 	andcs	r0, r0, r0, lsl #1

080010ec <SCSI_RequestSense_Cmd>:
 80010ec:	4b03      	ldr	r3, [pc, #12]	; (80010fc <SCSI_RequestSense_Cmd+0x10>)
 80010ee:	4804      	ldr	r0, [pc, #16]	; (8001100 <SCSI_RequestSense_Cmd+0x14>)
 80010f0:	7cd9      	ldrb	r1, [r3, #19]
 80010f2:	2912      	cmp	r1, #18
 80010f4:	bf28      	it	cs
 80010f6:	2112      	movcs	r1, #18
 80010f8:	f7ff bb80 	b.w	80007fc <Transfer_Data_Request>
 80010fc:	20000900 	andcs	r0, r0, r0, lsl #18
 8001100:	20000088 	andcs	r0, r0, r8, lsl #1

08001104 <Set_Scsi_Sense_Data>:
 8001104:	4b01      	ldr	r3, [pc, #4]	; (800110c <Set_Scsi_Sense_Data+0x8>)
 8001106:	7099      	strb	r1, [r3, #2]
 8001108:	731a      	strb	r2, [r3, #12]
 800110a:	4770      	bx	lr
 800110c:	20000088 	andcs	r0, r0, r8, lsl #1

08001110 <SCSI_Start_Stop_Unit_Cmd>:
 8001110:	2000      	movs	r0, #0
 8001112:	2101      	movs	r1, #1
 8001114:	f7ff bb8c 	b.w	8000830 <Set_CSW>

08001118 <SCSI_Verify10_Cmd>:
 8001118:	b508      	push	{r3, lr}
 800111a:	4b0c      	ldr	r3, [pc, #48]	; (800114c <SCSI_Verify10_Cmd+0x34>)
 800111c:	689a      	ldr	r2, [r3, #8]
 800111e:	b93a      	cbnz	r2, 8001130 <SCSI_Verify10_Cmd+0x18>
 8001120:	7c18      	ldrb	r0, [r3, #16]
 8001122:	f000 0104 	and.w	r1, r0, #4
 8001126:	f001 00ff 	and.w	r0, r1, #255	; 0xff
 800112a:	b909      	cbnz	r1, 8001130 <SCSI_Verify10_Cmd+0x18>
 800112c:	2101      	movs	r1, #1
 800112e:	e009      	b.n	8001144 <SCSI_Verify10_Cmd+0x2c>
 8001130:	2002      	movs	r0, #2
 8001132:	f7ff fcbd 	bl	8000ab0 <Bot_Abort>
 8001136:	4b06      	ldr	r3, [pc, #24]	; (8001150 <SCSI_Verify10_Cmd+0x38>)
 8001138:	2024      	movs	r0, #36	; 0x24
 800113a:	2205      	movs	r2, #5
 800113c:	7318      	strb	r0, [r3, #12]
 800113e:	709a      	strb	r2, [r3, #2]
 8001140:	2001      	movs	r0, #1
 8001142:	2100      	movs	r1, #0
 8001144:	e8bd 4008 	ldmia.w	sp!, {r3, lr}
 8001148:	f7ff bb72 	b.w	8000830 <Set_CSW>
 800114c:	20000900 	andcs	r0, r0, r0, lsl #18
 8001150:	20000088 	andcs	r0, r0, r8, lsl #1

08001154 <SCSI_TestUnitReady_Cmd>:
 8001154:	b508      	push	{r3, lr}
 8001156:	f7ff f9f9 	bl	800054c <MAL_GetStatus>
 800115a:	b168      	cbz	r0, 8001178 <SCSI_TestUnitReady_Cmd+0x24>
 800115c:	4b09      	ldr	r3, [pc, #36]	; (8001184 <SCSI_TestUnitReady_Cmd+0x30>)
 800115e:	203a      	movs	r0, #58	; 0x3a
 8001160:	7318      	strb	r0, [r3, #12]
 8001162:	2001      	movs	r0, #1
 8001164:	2202      	movs	r2, #2
 8001166:	4601      	mov	r1, r0
 8001168:	709a      	strb	r2, [r3, #2]
 800116a:	f7ff fb61 	bl	8000830 <Set_CSW>
 800116e:	2000      	movs	r0, #0
 8001170:	e8bd 4008 	ldmia.w	sp!, {r3, lr}
 8001174:	f7ff bc9c 	b.w	8000ab0 <Bot_Abort>
 8001178:	2101      	movs	r1, #1
 800117a:	e8bd 4008 	ldmia.w	sp!, {r3, lr}
 800117e:	f7ff bb57 	b.w	8000830 <Set_CSW>
 8001182:	bf00      	nop
 8001184:	20000088 	andcs	r0, r0, r8, lsl #1

08001188 <SCSI_Format_Cmd>:
 8001188:	b508      	push	{r3, lr}
 800118a:	f7ff f9df 	bl	800054c <MAL_GetStatus>
 800118e:	b128      	cbz	r0, 800119c <SCSI_Format_Cmd+0x14>
 8001190:	2000      	movs	r0, #0
 8001192:	2101      	movs	r1, #1
 8001194:	e8bd 4008 	ldmia.w	sp!, {r3, lr}
 8001198:	f7ff bb4a 	b.w	8000830 <Set_CSW>
 800119c:	bd08      	pop	{r3, pc}
	...

080011a0 <SCSI_Invalid_Cmd>:
 80011a0:	b508      	push	{r3, lr}
 80011a2:	4b0b      	ldr	r3, [pc, #44]	; (80011d0 <SCSI_Invalid_Cmd+0x30>)
 80011a4:	689a      	ldr	r2, [r3, #8]
 80011a6:	b90a      	cbnz	r2, 80011ac <SCSI_Invalid_Cmd+0xc>
 80011a8:	2000      	movs	r0, #0
 80011aa:	e004      	b.n	80011b6 <SCSI_Invalid_Cmd+0x16>
 80011ac:	f993 000c 	ldrsb.w	r0, [r3, #12]
 80011b0:	2800      	cmp	r0, #0
 80011b2:	dbf9      	blt.n	80011a8 <SCSI_Invalid_Cmd+0x8>
 80011b4:	2002      	movs	r0, #2
 80011b6:	f7ff fc7b 	bl	8000ab0 <Bot_Abort>
 80011ba:	4906      	ldr	r1, [pc, #24]	; (80011d4 <SCSI_Invalid_Cmd+0x34>)
 80011bc:	2305      	movs	r3, #5
 80011be:	2220      	movs	r2, #32
 80011c0:	708b      	strb	r3, [r1, #2]
 80011c2:	730a      	strb	r2, [r1, #12]
 80011c4:	2001      	movs	r0, #1
 80011c6:	2100      	movs	r1, #0
 80011c8:	e8bd 4008 	ldmia.w	sp!, {r3, lr}
 80011cc:	f7ff bb30 	b.w	8000830 <Set_CSW>
 80011d0:	20000900 	andcs	r0, r0, r0, lsl #18
 80011d4:	20000088 	andcs	r0, r0, r8, lsl #1

080011d8 <SCSI_Address_Management>:
 80011d8:	b510      	push	{r4, lr}
 80011da:	4c17      	ldr	r4, [pc, #92]	; (8001238 <SCSI_Address_Management+0x60>)
 80011dc:	189a      	adds	r2, r3, r2
 80011de:	f854 4020 	ldr.w	r4, [r4, r0, lsl #2]
 80011e2:	42a2      	cmp	r2, r4
 80011e4:	d90c      	bls.n	8001200 <SCSI_Address_Management+0x28>
 80011e6:	292a      	cmp	r1, #42	; 0x2a
 80011e8:	d102      	bne.n	80011f0 <SCSI_Address_Management+0x18>
 80011ea:	2002      	movs	r0, #2
 80011ec:	f7ff fc60 	bl	8000ab0 <Bot_Abort>
 80011f0:	2000      	movs	r0, #0
 80011f2:	f7ff fc5d 	bl	8000ab0 <Bot_Abort>
 80011f6:	4811      	ldr	r0, [pc, #68]	; (800123c <SCSI_Address_Management+0x64>)
 80011f8:	2205      	movs	r2, #5
 80011fa:	7082      	strb	r2, [r0, #2]
 80011fc:	2321      	movs	r3, #33	; 0x21
 80011fe:	e011      	b.n	8001224 <SCSI_Address_Management+0x4c>
 8001200:	4a0f      	ldr	r2, [pc, #60]	; (8001240 <SCSI_Address_Management+0x68>)
 8001202:	f852 2020 	ldr.w	r2, [r2, r0, lsl #2]
 8001206:	4353      	muls	r3, r2
 8001208:	4a0e      	ldr	r2, [pc, #56]	; (8001244 <SCSI_Address_Management+0x6c>)
 800120a:	6892      	ldr	r2, [r2, #8]
 800120c:	429a      	cmp	r2, r3
 800120e:	d010      	beq.n	8001232 <SCSI_Address_Management+0x5a>
 8001210:	292a      	cmp	r1, #42	; 0x2a
 8001212:	bf0c      	ite	eq
 8001214:	2002      	moveq	r0, #2
 8001216:	2000      	movne	r0, #0
 8001218:	f7ff fc4a 	bl	8000ab0 <Bot_Abort>
 800121c:	4807      	ldr	r0, [pc, #28]	; (800123c <SCSI_Address_Management+0x64>)
 800121e:	2105      	movs	r1, #5
 8001220:	7081      	strb	r1, [r0, #2]
 8001222:	2324      	movs	r3, #36	; 0x24
 8001224:	7303      	strb	r3, [r0, #12]
 8001226:	2100      	movs	r1, #0
 8001228:	2001      	movs	r0, #1
 800122a:	f7ff fb01 	bl	8000830 <Set_CSW>
 800122e:	2000      	movs	r0, #0
 8001230:	bd10      	pop	{r4, pc}
 8001232:	2001      	movs	r0, #1
 8001234:	bd10      	pop	{r4, pc}
 8001236:	bf00      	nop
 8001238:	200008cc 	andcs	r0, r0, ip, asr #17
 800123c:	20000088 	andcs	r0, r0, r8, lsl #1
 8001240:	200008b8 			; <UNDEFINED> instruction: 0x200008b8
 8001244:	20000900 	andcs	r0, r0, r0, lsl #18

08001248 <SCSI_Write10_Cmd>:
 8001248:	b5f8      	push	{r3, r4, r5, r6, r7, lr}
 800124a:	4d18      	ldr	r5, [pc, #96]	; (80012ac <SCSI_Write10_Cmd+0x64>)
 800124c:	460f      	mov	r7, r1
 800124e:	782c      	ldrb	r4, [r5, #0]
 8001250:	4613      	mov	r3, r2
 8001252:	2c00      	cmp	r4, #0
 8001254:	d122      	bne.n	800129c <SCSI_Write10_Cmd+0x54>
 8001256:	4e16      	ldr	r6, [pc, #88]	; (80012b0 <SCSI_Write10_Cmd+0x68>)
 8001258:	212a      	movs	r1, #42	; 0x2a
 800125a:	7b70      	ldrb	r0, [r6, #13]
 800125c:	463a      	mov	r2, r7
 800125e:	f7ff ffbb 	bl	80011d8 <SCSI_Address_Management>
 8001262:	2800      	cmp	r0, #0
 8001264:	d020      	beq.n	80012a8 <SCSI_Write10_Cmd+0x60>
 8001266:	f996 300c 	ldrsb.w	r3, [r6, #12]
 800126a:	2b00      	cmp	r3, #0
 800126c:	db08      	blt.n	8001280 <SCSI_Write10_Cmd+0x38>
 800126e:	2301      	movs	r3, #1
 8001270:	2002      	movs	r0, #2
 8001272:	f44f 5140 	mov.w	r1, #12288	; 0x3000
 8001276:	702b      	strb	r3, [r5, #0]
 8001278:	e8bd 40f8 	ldmia.w	sp!, {r3, r4, r5, r6, r7, lr}
 800127c:	f007 ba30 	b.w	80086e0 <SetEPRxStatus>
 8001280:	4620      	mov	r0, r4
 8001282:	f7ff fc15 	bl	8000ab0 <Bot_Abort>
 8001286:	480b      	ldr	r0, [pc, #44]	; (80012b4 <SCSI_Write10_Cmd+0x6c>)
 8001288:	2205      	movs	r2, #5
 800128a:	2124      	movs	r1, #36	; 0x24
 800128c:	7301      	strb	r1, [r0, #12]
 800128e:	7082      	strb	r2, [r0, #2]
 8001290:	4621      	mov	r1, r4
 8001292:	2001      	movs	r0, #1
 8001294:	e8bd 40f8 	ldmia.w	sp!, {r3, r4, r5, r6, r7, lr}
 8001298:	f7ff baca 	b.w	8000830 <Set_CSW>
 800129c:	2c01      	cmp	r4, #1
 800129e:	d103      	bne.n	80012a8 <SCSI_Write10_Cmd+0x60>
 80012a0:	e8bd 40f8 	ldmia.w	sp!, {r3, r4, r5, r6, r7, lr}
 80012a4:	f7ff ba1a 	b.w	80006dc <Write_Memory>
 80012a8:	bdf8      	pop	{r3, r4, r5, r6, r7, pc}
 80012aa:	bf00      	nop
 80012ac:	20000920 	andcs	r0, r0, r0, lsr #18
 80012b0:	20000900 	andcs	r0, r0, r0, lsl #18
 80012b4:	20000088 	andcs	r0, r0, r8, lsl #1

080012b8 <SCSI_Read10_Cmd>:
 80012b8:	e92d 41f0 	stmdb	sp!, {r4, r5, r6, r7, r8, lr}
 80012bc:	4e17      	ldr	r6, [pc, #92]	; (800131c <SCSI_Read10_Cmd+0x64>)
 80012be:	4680      	mov	r8, r0
 80012c0:	7833      	ldrb	r3, [r6, #0]
 80012c2:	460d      	mov	r5, r1
 80012c4:	4614      	mov	r4, r2
 80012c6:	bb03      	cbnz	r3, 800130a <SCSI_Read10_Cmd+0x52>
 80012c8:	4f15      	ldr	r7, [pc, #84]	; (8001320 <SCSI_Read10_Cmd+0x68>)
 80012ca:	2128      	movs	r1, #40	; 0x28
 80012cc:	7b78      	ldrb	r0, [r7, #13]
 80012ce:	462a      	mov	r2, r5
 80012d0:	4623      	mov	r3, r4
 80012d2:	f7ff ff81 	bl	80011d8 <SCSI_Address_Management>
 80012d6:	2800      	cmp	r0, #0
 80012d8:	d01d      	beq.n	8001316 <SCSI_Read10_Cmd+0x5e>
 80012da:	f997 000c 	ldrsb.w	r0, [r7, #12]
 80012de:	2800      	cmp	r0, #0
 80012e0:	da05      	bge.n	80012ee <SCSI_Read10_Cmd+0x36>
 80012e2:	2002      	movs	r0, #2
 80012e4:	7030      	strb	r0, [r6, #0]
 80012e6:	4629      	mov	r1, r5
 80012e8:	4640      	mov	r0, r8
 80012ea:	4622      	mov	r2, r4
 80012ec:	e00f      	b.n	800130e <SCSI_Read10_Cmd+0x56>
 80012ee:	2002      	movs	r0, #2
 80012f0:	f7ff fbde 	bl	8000ab0 <Bot_Abort>
 80012f4:	490b      	ldr	r1, [pc, #44]	; (8001324 <SCSI_Read10_Cmd+0x6c>)
 80012f6:	2205      	movs	r2, #5
 80012f8:	2324      	movs	r3, #36	; 0x24
 80012fa:	2001      	movs	r0, #1
 80012fc:	708a      	strb	r2, [r1, #2]
 80012fe:	730b      	strb	r3, [r1, #12]
 8001300:	4601      	mov	r1, r0
 8001302:	e8bd 41f0 	ldmia.w	sp!, {r4, r5, r6, r7, r8, lr}
 8001306:	f7ff ba93 	b.w	8000830 <Set_CSW>
 800130a:	2b02      	cmp	r3, #2
 800130c:	d103      	bne.n	8001316 <SCSI_Read10_Cmd+0x5e>
 800130e:	e8bd 41f0 	ldmia.w	sp!, {r4, r5, r6, r7, r8, lr}
 8001312:	f7ff b94d 	b.w	80005b0 <Read_Memory>
 8001316:	e8bd 81f0 	ldmia.w	sp!, {r4, r5, r6, r7, r8, pc}
 800131a:	bf00      	nop
 800131c:	20000920 	andcs	r0, r0, r0, lsr #18
 8001320:	20000900 	andcs	r0, r0, r0, lsl #18
 8001324:	20000088 	andcs	r0, r0, r8, lsl #1

08001328 <Add_To_Buffer>:
 8001328:	880a      	ldrh	r2, [r1, #0]
 800132a:	688b      	ldr	r3, [r1, #8]
 800132c:	f823 0012 	strh.w	r0, [r3, r2, lsl #1]
 8001330:	f8b1 c004 	ldrh.w	ip, [r1, #4]
 8001334:	1c50      	adds	r0, r2, #1
 8001336:	b282      	uxth	r2, r0
 8001338:	fbb2 f3fc 	udiv	r3, r2, ip
 800133c:	fb0c 2013 	mls	r0, ip, r3, r2
 8001340:	884a      	ldrh	r2, [r1, #2]
 8001342:	b283      	uxth	r3, r0
 8001344:	429a      	cmp	r2, r3
 8001346:	800b      	strh	r3, [r1, #0]
 8001348:	d105      	bne.n	8001356 <Add_To_Buffer+0x2e>
 800134a:	1c53      	adds	r3, r2, #1
 800134c:	fb93 f0fc 	sdiv	r0, r3, ip
 8001350:	fb0c 3210 	mls	r2, ip, r0, r3
 8001354:	804a      	strh	r2, [r1, #2]
 8001356:	4770      	bx	lr

08001358 <Get_From_Buffer>:
 8001358:	884b      	ldrh	r3, [r1, #2]
 800135a:	880a      	ldrh	r2, [r1, #0]
 800135c:	429a      	cmp	r2, r3
 800135e:	d103      	bne.n	8001368 <Get_From_Buffer+0x10>
 8001360:	2100      	movs	r1, #0
 8001362:	8001      	strh	r1, [r0, #0]
 8001364:	2001      	movs	r0, #1
 8001366:	4770      	bx	lr
 8001368:	688a      	ldr	r2, [r1, #8]
 800136a:	f832 c013 	ldrh.w	ip, [r2, r3, lsl #1]
 800136e:	f8a0 c000 	strh.w	ip, [r0]
 8001372:	8848      	ldrh	r0, [r1, #2]
 8001374:	f8b1 c004 	ldrh.w	ip, [r1, #4]
 8001378:	1c43      	adds	r3, r0, #1
 800137a:	b29a      	uxth	r2, r3
 800137c:	fbb2 f0fc 	udiv	r0, r2, ip
 8001380:	fb0c 2310 	mls	r3, ip, r0, r2
 8001384:	2000      	movs	r0, #0
 8001386:	804b      	strh	r3, [r1, #2]
 8001388:	4770      	bx	lr

0800138a <Empty_Buffer>:
 800138a:	8803      	ldrh	r3, [r0, #0]
 800138c:	8043      	strh	r3, [r0, #2]
 800138e:	4770      	bx	lr

08001390 <init_buffer>:
 8001390:	b538      	push	{r3, r4, r5, lr}
 8001392:	4604      	mov	r4, r0
 8001394:	0048      	lsls	r0, r1, #1
 8001396:	460d      	mov	r5, r1
 8001398:	f008 fd50 	bl	8009e3c <malloc>
 800139c:	80a5      	strh	r5, [r4, #4]
 800139e:	60a0      	str	r0, [r4, #8]
 80013a0:	bd38      	pop	{r3, r4, r5, pc}
	...

080013a4 <Delay>:
 80013a4:	4b09      	ldr	r3, [pc, #36]	; (80013cc <Delay+0x28>)
 80013a6:	b082      	sub	sp, #8
 80013a8:	9001      	str	r0, [sp, #4]
 80013aa:	4909      	ldr	r1, [pc, #36]	; (80013d0 <Delay+0x2c>)
 80013ac:	6818      	ldr	r0, [r3, #0]
 80013ae:	9a01      	ldr	r2, [sp, #4]
 80013b0:	fbb0 f1f1 	udiv	r1, r0, r1
 80013b4:	fb02 f001 	mul.w	r0, r2, r1
 80013b8:	e001      	b.n	80013be <Delay+0x1a>
 80013ba:	9b01      	ldr	r3, [sp, #4]
 80013bc:	1e58      	subs	r0, r3, #1
 80013be:	9001      	str	r0, [sp, #4]
 80013c0:	9a01      	ldr	r2, [sp, #4]
 80013c2:	2a00      	cmp	r2, #0
 80013c4:	d1f9      	bne.n	80013ba <Delay+0x16>
 80013c6:	b002      	add	sp, #8
 80013c8:	4770      	bx	lr
 80013ca:	bf00      	nop
 80013cc:	080118d4 	stmdaeq	r1, {r2, r4, r6, r7, fp, ip}
 80013d0:	00895440 	addeq	r5, r9, r0, asr #8

080013d4 <ff_convert>:
 80013d4:	2880      	cmp	r0, #128	; 0x80
 80013d6:	b5f0      	push	{r4, r5, r6, r7, lr}
 80013d8:	d926      	bls.n	8001428 <ff_convert+0x54>
 80013da:	b161      	cbz	r1, 80013f6 <ff_convert+0x22>
 80013dc:	4b13      	ldr	r3, [pc, #76]	; (800142c <ff_convert+0x58>)
 80013de:	f833 2c04 	ldrh.w	r2, [r3, #-4]
 80013e2:	4619      	mov	r1, r3
 80013e4:	b912      	cbnz	r2, 80013ec <ff_convert+0x18>
 80013e6:	f831 0c06 	ldrh.w	r0, [r1, #-6]
 80013ea:	bdf0      	pop	{r4, r5, r6, r7, pc}
 80013ec:	4282      	cmp	r2, r0
 80013ee:	f103 0304 	add.w	r3, r3, #4
 80013f2:	d1f4      	bne.n	80013de <ff_convert+0xa>
 80013f4:	e7f7      	b.n	80013e6 <ff_convert+0x12>
 80013f6:	4f0e      	ldr	r7, [pc, #56]	; (8001430 <ff_convert+0x5c>)
 80013f8:	2310      	movs	r3, #16
 80013fa:	f641 45dd 	movw	r5, #7389	; 0x1cdd
 80013fe:	2602      	movs	r6, #2
 8001400:	1a6a      	subs	r2, r5, r1
 8001402:	fb92 f4f6 	sdiv	r4, r2, r6
 8001406:	190a      	adds	r2, r1, r4
 8001408:	0054      	lsls	r4, r2, #1
 800140a:	f837 c014 	ldrh.w	ip, [r7, r4, lsl #1]
 800140e:	4560      	cmp	r0, ip
 8001410:	d006      	beq.n	8001420 <ff_convert+0x4c>
 8001412:	bf94      	ite	ls
 8001414:	4615      	movls	r5, r2
 8001416:	4611      	movhi	r1, r2
 8001418:	3b01      	subs	r3, #1
 800141a:	d1f1      	bne.n	8001400 <ff_convert+0x2c>
 800141c:	4618      	mov	r0, r3
 800141e:	bdf0      	pop	{r4, r5, r6, r7, pc}
 8001420:	4803      	ldr	r0, [pc, #12]	; (8001430 <ff_convert+0x5c>)
 8001422:	3401      	adds	r4, #1
 8001424:	f830 0014 	ldrh.w	r0, [r0, r4, lsl #1]
 8001428:	bdf0      	pop	{r4, r5, r6, r7, pc}
 800142a:	bf00      	nop
 800142c:	0800a220 	stmdaeq	r0, {r5, r9, sp, pc}
 8001430:	0800a21a 	stmdaeq	r0, {r1, r3, r4, r9, sp, pc}

08001434 <ff_wtoupper>:
 8001434:	2300      	movs	r3, #0
 8001436:	4906      	ldr	r1, [pc, #24]	; (8001450 <ff_wtoupper+0x1c>)
 8001438:	e000      	b.n	800143c <ff_wtoupper+0x8>
 800143a:	3301      	adds	r3, #1
 800143c:	f831 2013 	ldrh.w	r2, [r1, r3, lsl #1]
 8001440:	b122      	cbz	r2, 800144c <ff_wtoupper+0x18>
 8001442:	4290      	cmp	r0, r2
 8001444:	d1f9      	bne.n	800143a <ff_wtoupper+0x6>
 8001446:	4803      	ldr	r0, [pc, #12]	; (8001454 <ff_wtoupper+0x20>)
 8001448:	f830 0013 	ldrh.w	r0, [r0, r3, lsl #1]
 800144c:	4770      	bx	lr
 800144e:	bf00      	nop
 8001450:	08011592 	stmdaeq	r1, {r1, r4, r7, r8, sl, ip}
 8001454:	0800a03a 	stmdaeq	r0, {r1, r3, r4, r5, sp, pc}

08001458 <get_fattime>:
 8001458:	b51f      	push	{r0, r1, r2, r3, r4, lr}
 800145a:	a801      	add	r0, sp, #4
 800145c:	f001 fdbc 	bl	8002fd8 <rtc_gettime>
 8001460:	f89d 2006 	ldrb.w	r2, [sp, #6]
 8001464:	f89d 3007 	ldrb.w	r3, [sp, #7]
 8001468:	0550      	lsls	r0, r2, #21
 800146a:	f89d c00b 	ldrb.w	ip, [sp, #11]
 800146e:	ea40 4103 	orr.w	r1, r0, r3, lsl #16
 8001472:	f8bd 3004 	ldrh.w	r3, [sp, #4]
 8001476:	ea41 025c 	orr.w	r2, r1, ip, lsr #1
 800147a:	f89d c009 	ldrb.w	ip, [sp, #9]
 800147e:	f2a3 70bc 	subw	r0, r3, #1980	; 0x7bc
 8001482:	ea42 6140 	orr.w	r1, r2, r0, lsl #25
 8001486:	ea4f 22cc 	mov.w	r2, ip, lsl #11
 800148a:	b293      	uxth	r3, r2
 800148c:	f89d 000a 	ldrb.w	r0, [sp, #10]
 8001490:	4319      	orrs	r1, r3
 8001492:	ea41 1040 	orr.w	r0, r1, r0, lsl #5
 8001496:	b005      	add	sp, #20
 8001498:	bd00      	pop	{pc}

0800149a <mem_cpy>:
 800149a:	b510      	push	{r4, lr}
 800149c:	2300      	movs	r3, #0
 800149e:	e002      	b.n	80014a6 <mem_cpy+0xc>
 80014a0:	5ccc      	ldrb	r4, [r1, r3]
 80014a2:	54c4      	strb	r4, [r0, r3]
 80014a4:	3301      	adds	r3, #1
 80014a6:	4293      	cmp	r3, r2
 80014a8:	d1fa      	bne.n	80014a0 <mem_cpy+0x6>
 80014aa:	bd10      	pop	{r4, pc}

080014ac <sum_sfn>:
 80014ac:	2300      	movs	r3, #0
 80014ae:	b510      	push	{r4, lr}
 80014b0:	4604      	mov	r4, r0
 80014b2:	4618      	mov	r0, r3
 80014b4:	5ce1      	ldrb	r1, [r4, r3]
 80014b6:	0842      	lsrs	r2, r0, #1
 80014b8:	ea42 10c0 	orr.w	r0, r2, r0, lsl #7
 80014bc:	3301      	adds	r3, #1
 80014be:	eb00 0c01 	add.w	ip, r0, r1
 80014c2:	2b0b      	cmp	r3, #11
 80014c4:	f00c 00ff 	and.w	r0, ip, #255	; 0xff
 80014c8:	d1f4      	bne.n	80014b4 <sum_sfn+0x8>
 80014ca:	bd10      	pop	{r4, pc}

080014cc <get_fileinfo>:
 80014cc:	b5f8      	push	{r3, r4, r5, r6, r7, lr}
 80014ce:	6903      	ldr	r3, [r0, #16]
 80014d0:	460d      	mov	r5, r1
 80014d2:	f101 0209 	add.w	r2, r1, #9
 80014d6:	2b00      	cmp	r3, #0
 80014d8:	d055      	beq.n	8001586 <get_fileinfo+0xba>
 80014da:	6943      	ldr	r3, [r0, #20]
 80014dc:	4611      	mov	r1, r2
 80014de:	7b1f      	ldrb	r7, [r3, #12]
 80014e0:	2400      	movs	r4, #0
 80014e2:	f007 0208 	and.w	r2, r7, #8
 80014e6:	fa5f fc82 	uxtb.w	ip, r2
 80014ea:	5d1e      	ldrb	r6, [r3, r4]
 80014ec:	460a      	mov	r2, r1
 80014ee:	2e20      	cmp	r6, #32
 80014f0:	d012      	beq.n	8001518 <get_fileinfo+0x4c>
 80014f2:	2e05      	cmp	r6, #5
 80014f4:	bf14      	ite	ne
 80014f6:	4632      	movne	r2, r6
 80014f8:	22e5      	moveq	r2, #229	; 0xe5
 80014fa:	f1bc 0f00 	cmp.w	ip, #0
 80014fe:	d005      	beq.n	800150c <get_fileinfo+0x40>
 8001500:	f1a2 0641 	sub.w	r6, r2, #65	; 0x41
 8001504:	2e19      	cmp	r6, #25
 8001506:	bf9c      	itt	ls
 8001508:	3220      	addls	r2, #32
 800150a:	b2d2      	uxtbls	r2, r2
 800150c:	3401      	adds	r4, #1
 800150e:	f801 2b01 	strb.w	r2, [r1], #1
 8001512:	2c08      	cmp	r4, #8
 8001514:	460a      	mov	r2, r1
 8001516:	d1e8      	bne.n	80014ea <get_fileinfo+0x1e>
 8001518:	7a1e      	ldrb	r6, [r3, #8]
 800151a:	2e20      	cmp	r6, #32
 800151c:	d018      	beq.n	8001550 <get_fileinfo+0x84>
 800151e:	f04f 0c2e 	mov.w	ip, #46	; 0x2e
 8001522:	f007 0710 	and.w	r7, r7, #16
 8001526:	f801 cb01 	strb.w	ip, [r1], #1
 800152a:	2608      	movs	r6, #8
 800152c:	b2ff      	uxtb	r7, r7
 800152e:	5d9c      	ldrb	r4, [r3, r6]
 8001530:	460a      	mov	r2, r1
 8001532:	2c20      	cmp	r4, #32
 8001534:	d00c      	beq.n	8001550 <get_fileinfo+0x84>
 8001536:	b12f      	cbz	r7, 8001544 <get_fileinfo+0x78>
 8001538:	f1a4 0241 	sub.w	r2, r4, #65	; 0x41
 800153c:	2a19      	cmp	r2, #25
 800153e:	bf9c      	itt	ls
 8001540:	3420      	addls	r4, #32
 8001542:	b2e4      	uxtbls	r4, r4
 8001544:	3601      	adds	r6, #1
 8001546:	f801 4b01 	strb.w	r4, [r1], #1
 800154a:	2e0b      	cmp	r6, #11
 800154c:	460a      	mov	r2, r1
 800154e:	d1ee      	bne.n	800152e <get_fileinfo+0x62>
 8001550:	7ad9      	ldrb	r1, [r3, #11]
 8001552:	7229      	strb	r1, [r5, #8]
 8001554:	7f9c      	ldrb	r4, [r3, #30]
 8001556:	f893 c01f 	ldrb.w	ip, [r3, #31]
 800155a:	0426      	lsls	r6, r4, #16
 800155c:	ea46 610c 	orr.w	r1, r6, ip, lsl #24
 8001560:	f893 c01c 	ldrb.w	ip, [r3, #28]
 8001564:	7f5c      	ldrb	r4, [r3, #29]
 8001566:	ea41 060c 	orr.w	r6, r1, ip
 800156a:	ea46 2104 	orr.w	r1, r6, r4, lsl #8
 800156e:	6029      	str	r1, [r5, #0]
 8001570:	7e5e      	ldrb	r6, [r3, #25]
 8001572:	7e1c      	ldrb	r4, [r3, #24]
 8001574:	ea44 2c06 	orr.w	ip, r4, r6, lsl #8
 8001578:	f8a5 c004 	strh.w	ip, [r5, #4]
 800157c:	7dd9      	ldrb	r1, [r3, #23]
 800157e:	7d9b      	ldrb	r3, [r3, #22]
 8001580:	ea43 2601 	orr.w	r6, r3, r1, lsl #8
 8001584:	80ee      	strh	r6, [r5, #6]
 8001586:	2400      	movs	r4, #0
 8001588:	7014      	strb	r4, [r2, #0]
 800158a:	69ae      	ldr	r6, [r5, #24]
 800158c:	b326      	cbz	r6, 80015d8 <get_fileinfo+0x10c>
 800158e:	69ea      	ldr	r2, [r5, #28]
 8001590:	b312      	cbz	r2, 80015d8 <get_fileinfo+0x10c>
 8001592:	6901      	ldr	r1, [r0, #16]
 8001594:	b909      	cbnz	r1, 800159a <get_fileinfo+0xce>
 8001596:	2400      	movs	r4, #0
 8001598:	e01c      	b.n	80015d4 <get_fileinfo+0x108>
 800159a:	f8b0 c020 	ldrh.w	ip, [r0, #32]
 800159e:	f64f 73ff 	movw	r3, #65535	; 0xffff
 80015a2:	459c      	cmp	ip, r3
 80015a4:	d0f7      	beq.n	8001596 <get_fileinfo+0xca>
 80015a6:	69c7      	ldr	r7, [r0, #28]
 80015a8:	e010      	b.n	80015cc <get_fileinfo+0x100>
 80015aa:	2100      	movs	r1, #0
 80015ac:	f7ff ff12 	bl	80013d4 <ff_convert>
 80015b0:	2800      	cmp	r0, #0
 80015b2:	d0f0      	beq.n	8001596 <get_fileinfo+0xca>
 80015b4:	28ff      	cmp	r0, #255	; 0xff
 80015b6:	d902      	bls.n	80015be <get_fileinfo+0xf2>
 80015b8:	0a02      	lsrs	r2, r0, #8
 80015ba:	5532      	strb	r2, [r6, r4]
 80015bc:	3401      	adds	r4, #1
 80015be:	69e9      	ldr	r1, [r5, #28]
 80015c0:	f101 3eff 	add.w	lr, r1, #4294967295
 80015c4:	4574      	cmp	r4, lr
 80015c6:	d2e6      	bcs.n	8001596 <get_fileinfo+0xca>
 80015c8:	5530      	strb	r0, [r6, r4]
 80015ca:	3401      	adds	r4, #1
 80015cc:	f837 0b02 	ldrh.w	r0, [r7], #2
 80015d0:	2800      	cmp	r0, #0
 80015d2:	d1ea      	bne.n	80015aa <get_fileinfo+0xde>
 80015d4:	2000      	movs	r0, #0
 80015d6:	5530      	strb	r0, [r6, r4]
 80015d8:	bdf8      	pop	{r3, r4, r5, r6, r7, pc}

080015da <move_window>:
 80015da:	e92d 41f0 	stmdb	sp!, {r4, r5, r6, r7, r8, lr}
 80015de:	6b05      	ldr	r5, [r0, #48]	; 0x30
 80015e0:	4604      	mov	r4, r0
 80015e2:	428d      	cmp	r5, r1
 80015e4:	460e      	mov	r6, r1
 80015e6:	d102      	bne.n	80015ee <move_window+0x14>
 80015e8:	2000      	movs	r0, #0
 80015ea:	e8bd 81f0 	ldmia.w	sp!, {r4, r5, r6, r7, r8, pc}
 80015ee:	7903      	ldrb	r3, [r0, #4]
 80015f0:	b913      	cbnz	r3, 80015f8 <move_window+0x1e>
 80015f2:	2e00      	cmp	r6, #0
 80015f4:	d0f8      	beq.n	80015e8 <move_window+0xe>
 80015f6:	e020      	b.n	800163a <move_window+0x60>
 80015f8:	f100 0834 	add.w	r8, r0, #52	; 0x34
 80015fc:	4641      	mov	r1, r8
 80015fe:	7840      	ldrb	r0, [r0, #1]
 8001600:	462a      	mov	r2, r5
 8001602:	2301      	movs	r3, #1
 8001604:	f002 f8a6 	bl	8003754 <disk_write>
 8001608:	b110      	cbz	r0, 8001610 <move_window+0x36>
 800160a:	2001      	movs	r0, #1
 800160c:	e8bd 81f0 	ldmia.w	sp!, {r4, r5, r6, r7, r8, pc}
 8001610:	7120      	strb	r0, [r4, #4]
 8001612:	6a22      	ldr	r2, [r4, #32]
 8001614:	6a60      	ldr	r0, [r4, #36]	; 0x24
 8001616:	1811      	adds	r1, r2, r0
 8001618:	428d      	cmp	r5, r1
 800161a:	d2ea      	bcs.n	80015f2 <move_window+0x18>
 800161c:	78e7      	ldrb	r7, [r4, #3]
 800161e:	e009      	b.n	8001634 <move_window+0x5a>
 8001620:	6a23      	ldr	r3, [r4, #32]
 8001622:	7860      	ldrb	r0, [r4, #1]
 8001624:	18ed      	adds	r5, r5, r3
 8001626:	4641      	mov	r1, r8
 8001628:	462a      	mov	r2, r5
 800162a:	2301      	movs	r3, #1
 800162c:	f002 f892 	bl	8003754 <disk_write>
 8001630:	3f01      	subs	r7, #1
 8001632:	b2ff      	uxtb	r7, r7
 8001634:	2f01      	cmp	r7, #1
 8001636:	d8f3      	bhi.n	8001620 <move_window+0x46>
 8001638:	e7db      	b.n	80015f2 <move_window+0x18>
 800163a:	7860      	ldrb	r0, [r4, #1]
 800163c:	f104 0134 	add.w	r1, r4, #52	; 0x34
 8001640:	4632      	mov	r2, r6
 8001642:	2301      	movs	r3, #1
 8001644:	f002 f836 	bl	80036b4 <disk_read>
 8001648:	2800      	cmp	r0, #0
 800164a:	d1de      	bne.n	800160a <move_window+0x30>
 800164c:	6326      	str	r6, [r4, #48]	; 0x30
 800164e:	e8bd 81f0 	ldmia.w	sp!, {r4, r5, r6, r7, r8, pc}

08001652 <sync>:
 8001652:	b510      	push	{r4, lr}
 8001654:	2100      	movs	r1, #0
 8001656:	4604      	mov	r4, r0
 8001658:	f7ff ffbf 	bl	80015da <move_window>
 800165c:	4603      	mov	r3, r0
 800165e:	2800      	cmp	r0, #0
 8001660:	d155      	bne.n	800170e <sync+0xbc>
 8001662:	7823      	ldrb	r3, [r4, #0]
 8001664:	2b03      	cmp	r3, #3
 8001666:	d14a      	bne.n	80016fe <sync+0xac>
 8001668:	7961      	ldrb	r1, [r4, #5]
 800166a:	2900      	cmp	r1, #0
 800166c:	d047      	beq.n	80016fe <sync+0xac>
 800166e:	6320      	str	r0, [r4, #48]	; 0x30
 8001670:	f104 0134 	add.w	r1, r4, #52	; 0x34
 8001674:	4602      	mov	r2, r0
 8001676:	540a      	strb	r2, [r1, r0]
 8001678:	3001      	adds	r0, #1
 800167a:	f5b0 7f00 	cmp.w	r0, #512	; 0x200
 800167e:	d1fa      	bne.n	8001676 <sync+0x24>
 8001680:	2361      	movs	r3, #97	; 0x61
 8001682:	2055      	movs	r0, #85	; 0x55
 8001684:	f884 0232 	strb.w	r0, [r4, #562]	; 0x232
 8001688:	f884 3036 	strb.w	r3, [r4, #54]	; 0x36
 800168c:	2072      	movs	r0, #114	; 0x72
 800168e:	f884 321b 	strb.w	r3, [r4, #539]	; 0x21b
 8001692:	6923      	ldr	r3, [r4, #16]
 8001694:	2241      	movs	r2, #65	; 0x41
 8001696:	f04f 0caa 	mov.w	ip, #170	; 0xaa
 800169a:	f884 0218 	strb.w	r0, [r4, #536]	; 0x218
 800169e:	f884 0219 	strb.w	r0, [r4, #537]	; 0x219
 80016a2:	68e0      	ldr	r0, [r4, #12]
 80016a4:	f04f 0e52 	mov.w	lr, #82	; 0x52
 80016a8:	f884 c233 	strb.w	ip, [r4, #563]	; 0x233
 80016ac:	f884 2037 	strb.w	r2, [r4, #55]	; 0x37
 80016b0:	f3c3 2c07 	ubfx	ip, r3, #8, #8
 80016b4:	f884 221a 	strb.w	r2, [r4, #538]	; 0x21a
 80016b8:	0e1a      	lsrs	r2, r3, #24
 80016ba:	f884 e034 	strb.w	lr, [r4, #52]	; 0x34
 80016be:	f884 e035 	strb.w	lr, [r4, #53]	; 0x35
 80016c2:	f884 321c 	strb.w	r3, [r4, #540]	; 0x21c
 80016c6:	ea4f 4e13 	mov.w	lr, r3, lsr #16
 80016ca:	f884 c21d 	strb.w	ip, [r4, #541]	; 0x21d
 80016ce:	f3c0 2307 	ubfx	r3, r0, #8, #8
 80016d2:	ea4f 4c10 	mov.w	ip, r0, lsr #16
 80016d6:	f884 221f 	strb.w	r2, [r4, #543]	; 0x21f
 80016da:	0e02      	lsrs	r2, r0, #24
 80016dc:	f884 0220 	strb.w	r0, [r4, #544]	; 0x220
 80016e0:	f884 3221 	strb.w	r3, [r4, #545]	; 0x221
 80016e4:	f884 2223 	strb.w	r2, [r4, #547]	; 0x223
 80016e8:	f884 e21e 	strb.w	lr, [r4, #542]	; 0x21e
 80016ec:	f884 c222 	strb.w	ip, [r4, #546]	; 0x222
 80016f0:	7860      	ldrb	r0, [r4, #1]
 80016f2:	6962      	ldr	r2, [r4, #20]
 80016f4:	2301      	movs	r3, #1
 80016f6:	f002 f82d 	bl	8003754 <disk_write>
 80016fa:	2100      	movs	r1, #0
 80016fc:	7161      	strb	r1, [r4, #5]
 80016fe:	2100      	movs	r1, #0
 8001700:	7860      	ldrb	r0, [r4, #1]
 8001702:	460a      	mov	r2, r1
 8001704:	f002 f888 	bl	8003818 <disk_ioctl>
 8001708:	1c03      	adds	r3, r0, #0
 800170a:	bf18      	it	ne
 800170c:	2301      	movne	r3, #1
 800170e:	4618      	mov	r0, r3
 8001710:	bd10      	pop	{r4, pc}

08001712 <validate>:
 8001712:	b508      	push	{r3, lr}
 8001714:	b168      	cbz	r0, 8001732 <validate+0x20>
 8001716:	7803      	ldrb	r3, [r0, #0]
 8001718:	b15b      	cbz	r3, 8001732 <validate+0x20>
 800171a:	88c2      	ldrh	r2, [r0, #6]
 800171c:	428a      	cmp	r2, r1
 800171e:	d108      	bne.n	8001732 <validate+0x20>
 8001720:	7840      	ldrb	r0, [r0, #1]
 8001722:	f001 ffbd 	bl	80036a0 <disk_status>
 8001726:	f010 0f01 	tst.w	r0, #1
 800172a:	bf0c      	ite	eq
 800172c:	2000      	moveq	r0, #0
 800172e:	2003      	movne	r0, #3
 8001730:	bd08      	pop	{r3, pc}
 8001732:	2009      	movs	r0, #9
 8001734:	bd08      	pop	{r3, pc}
	...

08001738 <check_fs>:
 8001738:	b510      	push	{r4, lr}
 800173a:	4604      	mov	r4, r0
 800173c:	460a      	mov	r2, r1
 800173e:	7840      	ldrb	r0, [r0, #1]
 8001740:	f104 0134 	add.w	r1, r4, #52	; 0x34
 8001744:	2301      	movs	r3, #1
 8001746:	f001 ffb5 	bl	80036b4 <disk_read>
 800174a:	bba0      	cbnz	r0, 80017b6 <check_fs+0x7e>
 800174c:	f894 2233 	ldrb.w	r2, [r4, #563]	; 0x233
 8001750:	f894 3232 	ldrb.w	r3, [r4, #562]	; 0x232
 8001754:	ea43 2102 	orr.w	r1, r3, r2, lsl #8
 8001758:	4a19      	ldr	r2, [pc, #100]	; (80017c0 <check_fs+0x88>)
 800175a:	fa0f fc81 	sxth.w	ip, r1
 800175e:	4594      	cmp	ip, r2
 8001760:	d12b      	bne.n	80017ba <check_fs+0x82>
 8001762:	f894 306c 	ldrb.w	r3, [r4, #108]	; 0x6c
 8001766:	f894 e06d 	ldrb.w	lr, [r4, #109]	; 0x6d
 800176a:	0419      	lsls	r1, r3, #16
 800176c:	f894 206a 	ldrb.w	r2, [r4, #106]	; 0x6a
 8001770:	ea41 6c0e 	orr.w	ip, r1, lr, lsl #24
 8001774:	f894 e06b 	ldrb.w	lr, [r4, #107]	; 0x6b
 8001778:	ea4c 0102 	orr.w	r1, ip, r2
 800177c:	ea41 230e 	orr.w	r3, r1, lr, lsl #8
 8001780:	4910      	ldr	r1, [pc, #64]	; (80017c4 <check_fs+0x8c>)
 8001782:	f023 4c7f 	bic.w	ip, r3, #4278190080	; 0xff000000
 8001786:	458c      	cmp	ip, r1
 8001788:	d018      	beq.n	80017bc <check_fs+0x84>
 800178a:	f894 0088 	ldrb.w	r0, [r4, #136]	; 0x88
 800178e:	f894 2089 	ldrb.w	r2, [r4, #137]	; 0x89
 8001792:	0403      	lsls	r3, r0, #16
 8001794:	f894 c086 	ldrb.w	ip, [r4, #134]	; 0x86
 8001798:	ea43 6e02 	orr.w	lr, r3, r2, lsl #24
 800179c:	f894 2087 	ldrb.w	r2, [r4, #135]	; 0x87
 80017a0:	ea4e 000c 	orr.w	r0, lr, ip
 80017a4:	ea40 2302 	orr.w	r3, r0, r2, lsl #8
 80017a8:	f023 4e7f 	bic.w	lr, r3, #4278190080	; 0xff000000
 80017ac:	ebbe 0001 	subs.w	r0, lr, r1
 80017b0:	bf18      	it	ne
 80017b2:	2001      	movne	r0, #1
 80017b4:	bd10      	pop	{r4, pc}
 80017b6:	2003      	movs	r0, #3
 80017b8:	bd10      	pop	{r4, pc}
 80017ba:	2002      	movs	r0, #2
 80017bc:	bd10      	pop	{r4, pc}
 80017be:	bf00      	nop
 80017c0:	ffffaa55 			; <UNDEFINED> instruction: 0xffffaa55
 80017c4:	00544146 	subseq	r4, r4, r6, asr #2

080017c8 <chk_mounted>:
 80017c8:	e92d 41f0 	stmdb	sp!, {r4, r5, r6, r7, r8, lr}
 80017cc:	4615      	mov	r5, r2
 80017ce:	6802      	ldr	r2, [r0, #0]
 80017d0:	7813      	ldrb	r3, [r2, #0]
 80017d2:	3b30      	subs	r3, #48	; 0x30
 80017d4:	2b09      	cmp	r3, #9
 80017d6:	d805      	bhi.n	80017e4 <chk_mounted+0x1c>
 80017d8:	7854      	ldrb	r4, [r2, #1]
 80017da:	2c3a      	cmp	r4, #58	; 0x3a
 80017dc:	d102      	bne.n	80017e4 <chk_mounted+0x1c>
 80017de:	3202      	adds	r2, #2
 80017e0:	6002      	str	r2, [r0, #0]
 80017e2:	e001      	b.n	80017e8 <chk_mounted+0x20>
 80017e4:	48be      	ldr	r0, [pc, #760]	; (8001ae0 <chk_mounted+0x318>)
 80017e6:	7803      	ldrb	r3, [r0, #0]
 80017e8:	2b00      	cmp	r3, #0
 80017ea:	f040 8167 	bne.w	8001abc <chk_mounted+0x2f4>
 80017ee:	4cbd      	ldr	r4, [pc, #756]	; (8001ae4 <chk_mounted+0x31c>)
 80017f0:	6824      	ldr	r4, [r4, #0]
 80017f2:	600c      	str	r4, [r1, #0]
 80017f4:	2c00      	cmp	r4, #0
 80017f6:	f000 8164 	beq.w	8001ac2 <chk_mounted+0x2fa>
 80017fa:	7821      	ldrb	r1, [r4, #0]
 80017fc:	b171      	cbz	r1, 800181c <chk_mounted+0x54>
 80017fe:	7860      	ldrb	r0, [r4, #1]
 8001800:	f001 ff4e 	bl	80036a0 <disk_status>
 8001804:	07c3      	lsls	r3, r0, #31
 8001806:	d409      	bmi.n	800181c <chk_mounted+0x54>
 8001808:	2d00      	cmp	r5, #0
 800180a:	f000 815d 	beq.w	8001ac8 <chk_mounted+0x300>
 800180e:	f010 0f04 	tst.w	r0, #4
 8001812:	bf0c      	ite	eq
 8001814:	2000      	moveq	r0, #0
 8001816:	200a      	movne	r0, #10
 8001818:	e8bd 81f0 	ldmia.w	sp!, {r4, r5, r6, r7, r8, pc}
 800181c:	2000      	movs	r0, #0
 800181e:	7020      	strb	r0, [r4, #0]
 8001820:	7060      	strb	r0, [r4, #1]
 8001822:	f001 fe97 	bl	8003554 <disk_initialize>
 8001826:	07c1      	lsls	r1, r0, #31
 8001828:	f100 8151 	bmi.w	8001ace <chk_mounted+0x306>
 800182c:	b115      	cbz	r5, 8001834 <chk_mounted+0x6c>
 800182e:	0742      	lsls	r2, r0, #29
 8001830:	f100 8150 	bmi.w	8001ad4 <chk_mounted+0x30c>
 8001834:	4620      	mov	r0, r4
 8001836:	2100      	movs	r1, #0
 8001838:	f7ff ff7e 	bl	8001738 <check_fs>
 800183c:	2801      	cmp	r0, #1
 800183e:	d119      	bne.n	8001874 <chk_mounted+0xac>
 8001840:	f894 01f6 	ldrb.w	r0, [r4, #502]	; 0x1f6
 8001844:	b910      	cbnz	r0, 800184c <chk_mounted+0x84>
 8001846:	200d      	movs	r0, #13
 8001848:	e8bd 81f0 	ldmia.w	sp!, {r4, r5, r6, r7, r8, pc}
 800184c:	f894 61fc 	ldrb.w	r6, [r4, #508]	; 0x1fc
 8001850:	f894 c1fd 	ldrb.w	ip, [r4, #509]	; 0x1fd
 8001854:	0433      	lsls	r3, r6, #16
 8001856:	f894 11fa 	ldrb.w	r1, [r4, #506]	; 0x1fa
 800185a:	ea43 620c 	orr.w	r2, r3, ip, lsl #24
 800185e:	f894 61fb 	ldrb.w	r6, [r4, #507]	; 0x1fb
 8001862:	ea42 0001 	orr.w	r0, r2, r1
 8001866:	ea40 2606 	orr.w	r6, r0, r6, lsl #8
 800186a:	4631      	mov	r1, r6
 800186c:	4620      	mov	r0, r4
 800186e:	f7ff ff63 	bl	8001738 <check_fs>
 8001872:	e000      	b.n	8001876 <chk_mounted+0xae>
 8001874:	2600      	movs	r6, #0
 8001876:	2803      	cmp	r0, #3
 8001878:	f000 812f 	beq.w	8001ada <chk_mounted+0x312>
 800187c:	2800      	cmp	r0, #0
 800187e:	d1e2      	bne.n	8001846 <chk_mounted+0x7e>
 8001880:	f894 e040 	ldrb.w	lr, [r4, #64]	; 0x40
 8001884:	f894 c03f 	ldrb.w	ip, [r4, #63]	; 0x3f
 8001888:	ea4c 230e 	orr.w	r3, ip, lr, lsl #8
 800188c:	f5b3 7f00 	cmp.w	r3, #512	; 0x200
 8001890:	d1d9      	bne.n	8001846 <chk_mounted+0x7e>
 8001892:	f894 504b 	ldrb.w	r5, [r4, #75]	; 0x4b
 8001896:	f894 204a 	ldrb.w	r2, [r4, #74]	; 0x4a
 800189a:	ea52 2105 	orrs.w	r1, r2, r5, lsl #8
 800189e:	d10e      	bne.n	80018be <chk_mounted+0xf6>
 80018a0:	f894 105a 	ldrb.w	r1, [r4, #90]	; 0x5a
 80018a4:	f894 005b 	ldrb.w	r0, [r4, #91]	; 0x5b
 80018a8:	040b      	lsls	r3, r1, #16
 80018aa:	f894 2058 	ldrb.w	r2, [r4, #88]	; 0x58
 80018ae:	ea43 6500 	orr.w	r5, r3, r0, lsl #24
 80018b2:	f894 1059 	ldrb.w	r1, [r4, #89]	; 0x59
 80018b6:	ea45 0002 	orr.w	r0, r5, r2
 80018ba:	ea40 2101 	orr.w	r1, r0, r1, lsl #8
 80018be:	f894 5044 	ldrb.w	r5, [r4, #68]	; 0x44
 80018c2:	6221      	str	r1, [r4, #32]
 80018c4:	1e6b      	subs	r3, r5, #1
 80018c6:	2b01      	cmp	r3, #1
 80018c8:	70e5      	strb	r5, [r4, #3]
 80018ca:	d8bc      	bhi.n	8001846 <chk_mounted+0x7e>
 80018cc:	f894 2041 	ldrb.w	r2, [r4, #65]	; 0x41
 80018d0:	70a2      	strb	r2, [r4, #2]
 80018d2:	2a00      	cmp	r2, #0
 80018d4:	d0b7      	beq.n	8001846 <chk_mounted+0x7e>
 80018d6:	1e50      	subs	r0, r2, #1
 80018d8:	4210      	tst	r0, r2
 80018da:	d1b4      	bne.n	8001846 <chk_mounted+0x7e>
 80018dc:	f894 e046 	ldrb.w	lr, [r4, #70]	; 0x46
 80018e0:	f894 c045 	ldrb.w	ip, [r4, #69]	; 0x45
 80018e4:	ea4c 230e 	orr.w	r3, ip, lr, lsl #8
 80018e8:	b298      	uxth	r0, r3
 80018ea:	071b      	lsls	r3, r3, #28
 80018ec:	8120      	strh	r0, [r4, #8]
 80018ee:	d1aa      	bne.n	8001846 <chk_mounted+0x7e>
 80018f0:	f894 7048 	ldrb.w	r7, [r4, #72]	; 0x48
 80018f4:	f894 8047 	ldrb.w	r8, [r4, #71]	; 0x47
 80018f8:	ea58 2e07 	orrs.w	lr, r8, r7, lsl #8
 80018fc:	d10f      	bne.n	800191e <chk_mounted+0x156>
 80018fe:	f894 c056 	ldrb.w	ip, [r4, #86]	; 0x56
 8001902:	f894 e057 	ldrb.w	lr, [r4, #87]	; 0x57
 8001906:	ea4f 430c 	mov.w	r3, ip, lsl #16
 800190a:	f894 7054 	ldrb.w	r7, [r4, #84]	; 0x54
 800190e:	ea43 680e 	orr.w	r8, r3, lr, lsl #24
 8001912:	f894 3055 	ldrb.w	r3, [r4, #85]	; 0x55
 8001916:	ea48 0e07 	orr.w	lr, r8, r7
 800191a:	ea4e 2e03 	orr.w	lr, lr, r3, lsl #8
 800191e:	f894 3043 	ldrb.w	r3, [r4, #67]	; 0x43
 8001922:	f894 7042 	ldrb.w	r7, [r4, #66]	; 0x42
 8001926:	ea57 2803 	orrs.w	r8, r7, r3, lsl #8
 800192a:	d08c      	beq.n	8001846 <chk_mounted+0x7e>
 800192c:	fb05 fc01 	mul.w	ip, r5, r1
 8001930:	eb08 1710 	add.w	r7, r8, r0, lsr #4
 8001934:	4467      	add	r7, ip
 8001936:	45be      	cmp	lr, r7
 8001938:	d385      	bcc.n	8001846 <chk_mounted+0x7e>
 800193a:	ebc7 0e0e 	rsb	lr, r7, lr
 800193e:	fbbe f3f2 	udiv	r3, lr, r2
 8001942:	2b00      	cmp	r3, #0
 8001944:	f43f af7f 	beq.w	8001846 <chk_mounted+0x7e>
 8001948:	f640 75f5 	movw	r5, #4085	; 0xff5
 800194c:	42ab      	cmp	r3, r5
 800194e:	d906      	bls.n	800195e <chk_mounted+0x196>
 8001950:	f64f 72f5 	movw	r2, #65525	; 0xfff5
 8001954:	4293      	cmp	r3, r2
 8001956:	bf8c      	ite	hi
 8001958:	2503      	movhi	r5, #3
 800195a:	2502      	movls	r5, #2
 800195c:	e000      	b.n	8001960 <chk_mounted+0x198>
 800195e:	2501      	movs	r5, #1
 8001960:	3302      	adds	r3, #2
 8001962:	19bf      	adds	r7, r7, r6
 8001964:	eb06 0208 	add.w	r2, r6, r8
 8001968:	2d03      	cmp	r5, #3
 800196a:	61e3      	str	r3, [r4, #28]
 800196c:	62e7      	str	r7, [r4, #44]	; 0x2c
 800196e:	6262      	str	r2, [r4, #36]	; 0x24
 8001970:	d115      	bne.n	800199e <chk_mounted+0x1d6>
 8001972:	2800      	cmp	r0, #0
 8001974:	f47f af67 	bne.w	8001846 <chk_mounted+0x7e>
 8001978:	f894 c062 	ldrb.w	ip, [r4, #98]	; 0x62
 800197c:	f894 0063 	ldrb.w	r0, [r4, #99]	; 0x63
 8001980:	ea4f 4e0c 	mov.w	lr, ip, lsl #16
 8001984:	ea4e 6200 	orr.w	r2, lr, r0, lsl #24
 8001988:	f894 0060 	ldrb.w	r0, [r4, #96]	; 0x60
 800198c:	ea42 0c00 	orr.w	ip, r2, r0
 8001990:	f894 2061 	ldrb.w	r2, [r4, #97]	; 0x61
 8001994:	ea4c 2002 	orr.w	r0, ip, r2, lsl #8
 8001998:	62a0      	str	r0, [r4, #40]	; 0x28
 800199a:	009a      	lsls	r2, r3, #2
 800199c:	e011      	b.n	80019c2 <chk_mounted+0x1fa>
 800199e:	2800      	cmp	r0, #0
 80019a0:	f43f af51 	beq.w	8001846 <chk_mounted+0x7e>
 80019a4:	eb0c 0002 	add.w	r0, ip, r2
 80019a8:	2d02      	cmp	r5, #2
 80019aa:	62a0      	str	r0, [r4, #40]	; 0x28
 80019ac:	d101      	bne.n	80019b2 <chk_mounted+0x1ea>
 80019ae:	005a      	lsls	r2, r3, #1
 80019b0:	e007      	b.n	80019c2 <chk_mounted+0x1fa>
 80019b2:	f04f 0c03 	mov.w	ip, #3
 80019b6:	fb0c fe03 	mul.w	lr, ip, r3
 80019ba:	f003 0301 	and.w	r3, r3, #1
 80019be:	eb03 025e 	add.w	r2, r3, lr, lsr #1
 80019c2:	f202 13ff 	addw	r3, r2, #511	; 0x1ff
 80019c6:	ebb1 2f53 	cmp.w	r1, r3, lsr #9
 80019ca:	f4ff af3c 	bcc.w	8001846 <chk_mounted+0x7e>
 80019ce:	f04f 31ff 	mov.w	r1, #4294967295
 80019d2:	2200      	movs	r2, #0
 80019d4:	2d03      	cmp	r5, #3
 80019d6:	6121      	str	r1, [r4, #16]
 80019d8:	60e2      	str	r2, [r4, #12]
 80019da:	d160      	bne.n	8001a9e <chk_mounted+0x2d6>
 80019dc:	f894 0065 	ldrb.w	r0, [r4, #101]	; 0x65
 80019e0:	f894 e064 	ldrb.w	lr, [r4, #100]	; 0x64
 80019e4:	7162      	strb	r2, [r4, #5]
 80019e6:	ea4e 2300 	orr.w	r3, lr, r0, lsl #8
 80019ea:	18f2      	adds	r2, r6, r3
 80019ec:	6162      	str	r2, [r4, #20]
 80019ee:	7860      	ldrb	r0, [r4, #1]
 80019f0:	f104 0134 	add.w	r1, r4, #52	; 0x34
 80019f4:	2301      	movs	r3, #1
 80019f6:	f001 fe5d 	bl	80036b4 <disk_read>
 80019fa:	2800      	cmp	r0, #0
 80019fc:	d14f      	bne.n	8001a9e <chk_mounted+0x2d6>
 80019fe:	f894 1233 	ldrb.w	r1, [r4, #563]	; 0x233
 8001a02:	f894 2232 	ldrb.w	r2, [r4, #562]	; 0x232
 8001a06:	4b38      	ldr	r3, [pc, #224]	; (8001ae8 <chk_mounted+0x320>)
 8001a08:	ea42 2001 	orr.w	r0, r2, r1, lsl #8
 8001a0c:	b201      	sxth	r1, r0
 8001a0e:	4299      	cmp	r1, r3
 8001a10:	d145      	bne.n	8001a9e <chk_mounted+0x2d6>
 8001a12:	f894 c036 	ldrb.w	ip, [r4, #54]	; 0x36
 8001a16:	f894 0037 	ldrb.w	r0, [r4, #55]	; 0x37
 8001a1a:	ea4f 4e0c 	mov.w	lr, ip, lsl #16
 8001a1e:	f894 1034 	ldrb.w	r1, [r4, #52]	; 0x34
 8001a22:	ea4e 6200 	orr.w	r2, lr, r0, lsl #24
 8001a26:	f894 3035 	ldrb.w	r3, [r4, #53]	; 0x35
 8001a2a:	ea42 0001 	orr.w	r0, r2, r1
 8001a2e:	4a2f      	ldr	r2, [pc, #188]	; (8001aec <chk_mounted+0x324>)
 8001a30:	ea40 2c03 	orr.w	ip, r0, r3, lsl #8
 8001a34:	4594      	cmp	ip, r2
 8001a36:	d132      	bne.n	8001a9e <chk_mounted+0x2d6>
 8001a38:	f894 021a 	ldrb.w	r0, [r4, #538]	; 0x21a
 8001a3c:	f894 121b 	ldrb.w	r1, [r4, #539]	; 0x21b
 8001a40:	0403      	lsls	r3, r0, #16
 8001a42:	f894 2218 	ldrb.w	r2, [r4, #536]	; 0x218
 8001a46:	ea43 6e01 	orr.w	lr, r3, r1, lsl #24
 8001a4a:	f894 0219 	ldrb.w	r0, [r4, #537]	; 0x219
 8001a4e:	ea4e 0102 	orr.w	r1, lr, r2
 8001a52:	4b27      	ldr	r3, [pc, #156]	; (8001af0 <chk_mounted+0x328>)
 8001a54:	ea41 2c00 	orr.w	ip, r1, r0, lsl #8
 8001a58:	459c      	cmp	ip, r3
 8001a5a:	d120      	bne.n	8001a9e <chk_mounted+0x2d6>
 8001a5c:	f894 2222 	ldrb.w	r2, [r4, #546]	; 0x222
 8001a60:	f894 e223 	ldrb.w	lr, [r4, #547]	; 0x223
 8001a64:	0411      	lsls	r1, r2, #16
 8001a66:	f894 3220 	ldrb.w	r3, [r4, #544]	; 0x220
 8001a6a:	ea41 600e 	orr.w	r0, r1, lr, lsl #24
 8001a6e:	f894 c221 	ldrb.w	ip, [r4, #545]	; 0x221
 8001a72:	f894 e21e 	ldrb.w	lr, [r4, #542]	; 0x21e
 8001a76:	ea40 0103 	orr.w	r1, r0, r3
 8001a7a:	f894 021f 	ldrb.w	r0, [r4, #543]	; 0x21f
 8001a7e:	ea41 220c 	orr.w	r2, r1, ip, lsl #8
 8001a82:	ea4f 430e 	mov.w	r3, lr, lsl #16
 8001a86:	f894 c21c 	ldrb.w	ip, [r4, #540]	; 0x21c
 8001a8a:	ea43 6100 	orr.w	r1, r3, r0, lsl #24
 8001a8e:	60e2      	str	r2, [r4, #12]
 8001a90:	f894 221d 	ldrb.w	r2, [r4, #541]	; 0x21d
 8001a94:	ea41 000c 	orr.w	r0, r1, ip
 8001a98:	ea40 2302 	orr.w	r3, r0, r2, lsl #8
 8001a9c:	6123      	str	r3, [r4, #16]
 8001a9e:	4915      	ldr	r1, [pc, #84]	; (8001af4 <chk_mounted+0x32c>)
 8001aa0:	7025      	strb	r5, [r4, #0]
 8001aa2:	f8b1 e000 	ldrh.w	lr, [r1]
 8001aa6:	f10e 0001 	add.w	r0, lr, #1
 8001aaa:	b282      	uxth	r2, r0
 8001aac:	2000      	movs	r0, #0
 8001aae:	800a      	strh	r2, [r1, #0]
 8001ab0:	80e2      	strh	r2, [r4, #6]
 8001ab2:	6320      	str	r0, [r4, #48]	; 0x30
 8001ab4:	7120      	strb	r0, [r4, #4]
 8001ab6:	61a0      	str	r0, [r4, #24]
 8001ab8:	e8bd 81f0 	ldmia.w	sp!, {r4, r5, r6, r7, r8, pc}
 8001abc:	200b      	movs	r0, #11
 8001abe:	e8bd 81f0 	ldmia.w	sp!, {r4, r5, r6, r7, r8, pc}
 8001ac2:	200c      	movs	r0, #12
 8001ac4:	e8bd 81f0 	ldmia.w	sp!, {r4, r5, r6, r7, r8, pc}
 8001ac8:	4628      	mov	r0, r5
 8001aca:	e8bd 81f0 	ldmia.w	sp!, {r4, r5, r6, r7, r8, pc}
 8001ace:	2003      	movs	r0, #3
 8001ad0:	e8bd 81f0 	ldmia.w	sp!, {r4, r5, r6, r7, r8, pc}
 8001ad4:	200a      	movs	r0, #10
 8001ad6:	e8bd 81f0 	ldmia.w	sp!, {r4, r5, r6, r7, r8, pc}
 8001ada:	2001      	movs	r0, #1
 8001adc:	e8bd 81f0 	ldmia.w	sp!, {r4, r5, r6, r7, r8, pc}
 8001ae0:	2000098c 	andcs	r0, r0, ip, lsl #19
 8001ae4:	20000990 	mulcs	r0, r0, r9
 8001ae8:	ffffaa55 			; <UNDEFINED> instruction: 0xffffaa55
 8001aec:	41615252 	cmnmi	r1, r2, asr r2
 8001af0:	61417272 	hvcvs	5922	; 0x1722
 8001af4:	2000098e 	andcs	r0, r0, lr, lsl #19

08001af8 <clust2sect>:
 8001af8:	69c3      	ldr	r3, [r0, #28]
 8001afa:	3902      	subs	r1, #2
 8001afc:	1e9a      	subs	r2, r3, #2
 8001afe:	4291      	cmp	r1, r2
 8001b00:	d205      	bcs.n	8001b0e <clust2sect+0x16>
 8001b02:	f890 c002 	ldrb.w	ip, [r0, #2]
 8001b06:	6ac0      	ldr	r0, [r0, #44]	; 0x2c
 8001b08:	fb0c 0001 	mla	r0, ip, r1, r0
 8001b0c:	4770      	bx	lr
 8001b0e:	2000      	movs	r0, #0
 8001b10:	4770      	bx	lr

08001b12 <get_fat>:
 8001b12:	2901      	cmp	r1, #1
 8001b14:	b5f8      	push	{r3, r4, r5, r6, r7, lr}
 8001b16:	4604      	mov	r4, r0
 8001b18:	460d      	mov	r5, r1
 8001b1a:	d961      	bls.n	8001be0 <get_fat+0xce>
 8001b1c:	69c3      	ldr	r3, [r0, #28]
 8001b1e:	4299      	cmp	r1, r3
 8001b20:	d25e      	bcs.n	8001be0 <get_fat+0xce>
 8001b22:	7801      	ldrb	r1, [r0, #0]
 8001b24:	2902      	cmp	r1, #2
 8001b26:	d02a      	beq.n	8001b7e <get_fat+0x6c>
 8001b28:	2903      	cmp	r1, #3
 8001b2a:	d039      	beq.n	8001ba0 <get_fat+0x8e>
 8001b2c:	2901      	cmp	r1, #1
 8001b2e:	d154      	bne.n	8001bda <get_fat+0xc8>
 8001b30:	6a42      	ldr	r2, [r0, #36]	; 0x24
 8001b32:	eb05 0655 	add.w	r6, r5, r5, lsr #1
 8001b36:	eb02 2156 	add.w	r1, r2, r6, lsr #9
 8001b3a:	f7ff fd4e 	bl	80015da <move_window>
 8001b3e:	b100      	cbz	r0, 8001b42 <get_fat+0x30>
 8001b40:	e04b      	b.n	8001bda <get_fat+0xc8>
 8001b42:	6a63      	ldr	r3, [r4, #36]	; 0x24
 8001b44:	05f0      	lsls	r0, r6, #23
 8001b46:	3601      	adds	r6, #1
 8001b48:	eb04 57d0 	add.w	r7, r4, r0, lsr #23
 8001b4c:	eb03 2156 	add.w	r1, r3, r6, lsr #9
 8001b50:	4620      	mov	r0, r4
 8001b52:	f897 7034 	ldrb.w	r7, [r7, #52]	; 0x34
 8001b56:	f7ff fd40 	bl	80015da <move_window>
 8001b5a:	2800      	cmp	r0, #0
 8001b5c:	d13d      	bne.n	8001bda <get_fat+0xc8>
 8001b5e:	05f6      	lsls	r6, r6, #23
 8001b60:	eb04 54d6 	add.w	r4, r4, r6, lsr #23
 8001b64:	f894 1034 	ldrb.w	r1, [r4, #52]	; 0x34
 8001b68:	07ea      	lsls	r2, r5, #31
 8001b6a:	ea47 2c01 	orr.w	ip, r7, r1, lsl #8
 8001b6e:	d502      	bpl.n	8001b76 <get_fat+0x64>
 8001b70:	ea4f 101c 	mov.w	r0, ip, lsr #4
 8001b74:	bdf8      	pop	{r3, r4, r5, r6, r7, pc}
 8001b76:	ea4f 520c 	mov.w	r2, ip, lsl #20
 8001b7a:	0d10      	lsrs	r0, r2, #20
 8001b7c:	bdf8      	pop	{r3, r4, r5, r6, r7, pc}
 8001b7e:	6a41      	ldr	r1, [r0, #36]	; 0x24
 8001b80:	eb01 2115 	add.w	r1, r1, r5, lsr #8
 8001b84:	f7ff fd29 	bl	80015da <move_window>
 8001b88:	bb38      	cbnz	r0, 8001bda <get_fat+0xc8>
 8001b8a:	062d      	lsls	r5, r5, #24
 8001b8c:	0ded      	lsrs	r5, r5, #23
 8001b8e:	1960      	adds	r0, r4, r5
 8001b90:	1964      	adds	r4, r4, r5
 8001b92:	f890 2034 	ldrb.w	r2, [r0, #52]	; 0x34
 8001b96:	f894 3035 	ldrb.w	r3, [r4, #53]	; 0x35
 8001b9a:	ea42 2003 	orr.w	r0, r2, r3, lsl #8
 8001b9e:	bdf8      	pop	{r3, r4, r5, r6, r7, pc}
 8001ba0:	6a43      	ldr	r3, [r0, #36]	; 0x24
 8001ba2:	eb03 11d5 	add.w	r1, r3, r5, lsr #7
 8001ba6:	f7ff fd18 	bl	80015da <move_window>
 8001baa:	b9b0      	cbnz	r0, 8001bda <get_fat+0xc8>
 8001bac:	066d      	lsls	r5, r5, #25
 8001bae:	0ded      	lsrs	r5, r5, #23
 8001bb0:	1961      	adds	r1, r4, r5
 8001bb2:	f891 0037 	ldrb.w	r0, [r1, #55]	; 0x37
 8001bb6:	f101 0234 	add.w	r2, r1, #52	; 0x34
 8001bba:	f891 e036 	ldrb.w	lr, [r1, #54]	; 0x36
 8001bbe:	0603      	lsls	r3, r0, #24
 8001bc0:	1964      	adds	r4, r4, r5
 8001bc2:	7850      	ldrb	r0, [r2, #1]
 8001bc4:	ea43 410e 	orr.w	r1, r3, lr, lsl #16
 8001bc8:	f894 c034 	ldrb.w	ip, [r4, #52]	; 0x34
 8001bcc:	ea41 2200 	orr.w	r2, r1, r0, lsl #8
 8001bd0:	ea42 030c 	orr.w	r3, r2, ip
 8001bd4:	f023 4070 	bic.w	r0, r3, #4026531840	; 0xf0000000
 8001bd8:	bdf8      	pop	{r3, r4, r5, r6, r7, pc}
 8001bda:	f04f 30ff 	mov.w	r0, #4294967295
 8001bde:	bdf8      	pop	{r3, r4, r5, r6, r7, pc}
 8001be0:	2001      	movs	r0, #1
 8001be2:	bdf8      	pop	{r3, r4, r5, r6, r7, pc}

08001be4 <dir_sdi>:
 8001be4:	b570      	push	{r4, r5, r6, lr}
 8001be6:	4604      	mov	r4, r0
 8001be8:	460d      	mov	r5, r1
 8001bea:	80e1      	strh	r1, [r4, #6]
 8001bec:	6881      	ldr	r1, [r0, #8]
 8001bee:	2901      	cmp	r1, #1
 8001bf0:	d101      	bne.n	8001bf6 <dir_sdi+0x12>
 8001bf2:	2002      	movs	r0, #2
 8001bf4:	bd70      	pop	{r4, r5, r6, pc}
 8001bf6:	6803      	ldr	r3, [r0, #0]
 8001bf8:	69da      	ldr	r2, [r3, #28]
 8001bfa:	4291      	cmp	r1, r2
 8001bfc:	d2f9      	bcs.n	8001bf2 <dir_sdi+0xe>
 8001bfe:	b971      	cbnz	r1, 8001c1e <dir_sdi+0x3a>
 8001c00:	7818      	ldrb	r0, [r3, #0]
 8001c02:	2803      	cmp	r0, #3
 8001c04:	d101      	bne.n	8001c0a <dir_sdi+0x26>
 8001c06:	6a99      	ldr	r1, [r3, #40]	; 0x28
 8001c08:	b949      	cbnz	r1, 8001c1e <dir_sdi+0x3a>
 8001c0a:	8919      	ldrh	r1, [r3, #8]
 8001c0c:	2000      	movs	r0, #0
 8001c0e:	42a9      	cmp	r1, r5
 8001c10:	60e0      	str	r0, [r4, #12]
 8001c12:	d9ee      	bls.n	8001bf2 <dir_sdi+0xe>
 8001c14:	6a9b      	ldr	r3, [r3, #40]	; 0x28
 8001c16:	eb03 1215 	add.w	r2, r3, r5, lsr #4
 8001c1a:	6122      	str	r2, [r4, #16]
 8001c1c:	e019      	b.n	8001c52 <dir_sdi+0x6e>
 8001c1e:	789e      	ldrb	r6, [r3, #2]
 8001c20:	0136      	lsls	r6, r6, #4
 8001c22:	e00d      	b.n	8001c40 <dir_sdi+0x5c>
 8001c24:	6820      	ldr	r0, [r4, #0]
 8001c26:	f7ff ff74 	bl	8001b12 <get_fat>
 8001c2a:	4601      	mov	r1, r0
 8001c2c:	3001      	adds	r0, #1
 8001c2e:	d01a      	beq.n	8001c66 <dir_sdi+0x82>
 8001c30:	2901      	cmp	r1, #1
 8001c32:	d9de      	bls.n	8001bf2 <dir_sdi+0xe>
 8001c34:	6823      	ldr	r3, [r4, #0]
 8001c36:	69da      	ldr	r2, [r3, #28]
 8001c38:	4291      	cmp	r1, r2
 8001c3a:	d2da      	bcs.n	8001bf2 <dir_sdi+0xe>
 8001c3c:	1bad      	subs	r5, r5, r6
 8001c3e:	b2ad      	uxth	r5, r5
 8001c40:	42b5      	cmp	r5, r6
 8001c42:	d2ef      	bcs.n	8001c24 <dir_sdi+0x40>
 8001c44:	60e1      	str	r1, [r4, #12]
 8001c46:	6820      	ldr	r0, [r4, #0]
 8001c48:	f7ff ff56 	bl	8001af8 <clust2sect>
 8001c4c:	eb00 1115 	add.w	r1, r0, r5, lsr #4
 8001c50:	6121      	str	r1, [r4, #16]
 8001c52:	6820      	ldr	r0, [r4, #0]
 8001c54:	f005 050f 	and.w	r5, r5, #15
 8001c58:	eb00 1c45 	add.w	ip, r0, r5, lsl #5
 8001c5c:	f10c 0134 	add.w	r1, ip, #52	; 0x34
 8001c60:	6161      	str	r1, [r4, #20]
 8001c62:	2000      	movs	r0, #0
 8001c64:	bd70      	pop	{r4, r5, r6, pc}
 8001c66:	2001      	movs	r0, #1
 8001c68:	bd70      	pop	{r4, r5, r6, pc}

08001c6a <put_fat>:
 8001c6a:	2901      	cmp	r1, #1
 8001c6c:	b5f8      	push	{r3, r4, r5, r6, r7, lr}
 8001c6e:	4604      	mov	r4, r0
 8001c70:	460d      	mov	r5, r1
 8001c72:	4616      	mov	r6, r2
 8001c74:	d97a      	bls.n	8001d6c <put_fat+0x102>
 8001c76:	69c3      	ldr	r3, [r0, #28]
 8001c78:	4299      	cmp	r1, r3
 8001c7a:	d277      	bcs.n	8001d6c <put_fat+0x102>
 8001c7c:	7801      	ldrb	r1, [r0, #0]
 8001c7e:	2902      	cmp	r1, #2
 8001c80:	d03f      	beq.n	8001d02 <put_fat+0x98>
 8001c82:	2903      	cmp	r1, #3
 8001c84:	d04e      	beq.n	8001d24 <put_fat+0xba>
 8001c86:	2901      	cmp	r1, #1
 8001c88:	d16c      	bne.n	8001d64 <put_fat+0xfa>
 8001c8a:	6a42      	ldr	r2, [r0, #36]	; 0x24
 8001c8c:	eb05 0755 	add.w	r7, r5, r5, lsr #1
 8001c90:	eb02 2157 	add.w	r1, r2, r7, lsr #9
 8001c94:	f7ff fca1 	bl	80015da <move_window>
 8001c98:	2800      	cmp	r0, #0
 8001c9a:	d164      	bne.n	8001d66 <put_fat+0xfc>
 8001c9c:	05f8      	lsls	r0, r7, #23
 8001c9e:	f015 0501 	ands.w	r5, r5, #1
 8001ca2:	ea4f 5cd0 	mov.w	ip, r0, lsr #23
 8001ca6:	b2f3      	uxtb	r3, r6
 8001ca8:	d009      	beq.n	8001cbe <put_fat+0x54>
 8001caa:	eb04 010c 	add.w	r1, r4, ip
 8001cae:	f891 2034 	ldrb.w	r2, [r1, #52]	; 0x34
 8001cb2:	f002 000f 	and.w	r0, r2, #15
 8001cb6:	ea40 1e03 	orr.w	lr, r0, r3, lsl #4
 8001cba:	fa5f f38e 	uxtb.w	r3, lr
 8001cbe:	eb04 010c 	add.w	r1, r4, ip
 8001cc2:	f881 3034 	strb.w	r3, [r1, #52]	; 0x34
 8001cc6:	6a63      	ldr	r3, [r4, #36]	; 0x24
 8001cc8:	3701      	adds	r7, #1
 8001cca:	2201      	movs	r2, #1
 8001ccc:	7122      	strb	r2, [r4, #4]
 8001cce:	4620      	mov	r0, r4
 8001cd0:	eb03 2157 	add.w	r1, r3, r7, lsr #9
 8001cd4:	f7ff fc81 	bl	80015da <move_window>
 8001cd8:	2800      	cmp	r0, #0
 8001cda:	d144      	bne.n	8001d66 <put_fat+0xfc>
 8001cdc:	05ff      	lsls	r7, r7, #23
 8001cde:	0df9      	lsrs	r1, r7, #23
 8001ce0:	b115      	cbz	r5, 8001ce8 <put_fat+0x7e>
 8001ce2:	f3c6 1607 	ubfx	r6, r6, #4, #8
 8001ce6:	e008      	b.n	8001cfa <put_fat+0x90>
 8001ce8:	1862      	adds	r2, r4, r1
 8001cea:	f892 c034 	ldrb.w	ip, [r2, #52]	; 0x34
 8001cee:	f3c6 2603 	ubfx	r6, r6, #8, #4
 8001cf2:	f02c 0e0f 	bic.w	lr, ip, #15
 8001cf6:	ea4e 0606 	orr.w	r6, lr, r6
 8001cfa:	1867      	adds	r7, r4, r1
 8001cfc:	f887 6034 	strb.w	r6, [r7, #52]	; 0x34
 8001d00:	e031      	b.n	8001d66 <put_fat+0xfc>
 8001d02:	6a43      	ldr	r3, [r0, #36]	; 0x24
 8001d04:	eb03 2115 	add.w	r1, r3, r5, lsr #8
 8001d08:	f7ff fc67 	bl	80015da <move_window>
 8001d0c:	bb58      	cbnz	r0, 8001d66 <put_fat+0xfc>
 8001d0e:	062d      	lsls	r5, r5, #24
 8001d10:	0de9      	lsrs	r1, r5, #23
 8001d12:	1862      	adds	r2, r4, r1
 8001d14:	f882 6034 	strb.w	r6, [r2, #52]	; 0x34
 8001d18:	f3c6 2607 	ubfx	r6, r6, #8, #8
 8001d1c:	4615      	mov	r5, r2
 8001d1e:	f882 6035 	strb.w	r6, [r2, #53]	; 0x35
 8001d22:	e020      	b.n	8001d66 <put_fat+0xfc>
 8001d24:	6a43      	ldr	r3, [r0, #36]	; 0x24
 8001d26:	eb03 11d5 	add.w	r1, r3, r5, lsr #7
 8001d2a:	f7ff fc56 	bl	80015da <move_window>
 8001d2e:	b9d0      	cbnz	r0, 8001d66 <put_fat+0xfc>
 8001d30:	066d      	lsls	r5, r5, #25
 8001d32:	0de9      	lsrs	r1, r5, #23
 8001d34:	1863      	adds	r3, r4, r1
 8001d36:	f893 2037 	ldrb.w	r2, [r3, #55]	; 0x37
 8001d3a:	461d      	mov	r5, r3
 8001d3c:	0611      	lsls	r1, r2, #24
 8001d3e:	f001 4c70 	and.w	ip, r1, #4026531840	; 0xf0000000
 8001d42:	ea4c 0e06 	orr.w	lr, ip, r6
 8001d46:	f3ce 2607 	ubfx	r6, lr, #8, #8
 8001d4a:	f883 6035 	strb.w	r6, [r3, #53]	; 0x35
 8001d4e:	ea4f 421e 	mov.w	r2, lr, lsr #16
 8001d52:	ea4f 661e 	mov.w	r6, lr, lsr #24
 8001d56:	f883 e034 	strb.w	lr, [r3, #52]	; 0x34
 8001d5a:	f883 2036 	strb.w	r2, [r3, #54]	; 0x36
 8001d5e:	f883 6037 	strb.w	r6, [r3, #55]	; 0x37
 8001d62:	e000      	b.n	8001d66 <put_fat+0xfc>
 8001d64:	2002      	movs	r0, #2
 8001d66:	2301      	movs	r3, #1
 8001d68:	7123      	strb	r3, [r4, #4]
 8001d6a:	bdf8      	pop	{r3, r4, r5, r6, r7, pc}
 8001d6c:	2002      	movs	r0, #2
 8001d6e:	bdf8      	pop	{r3, r4, r5, r6, r7, pc}

08001d70 <create_chain>:
 8001d70:	b5f8      	push	{r3, r4, r5, r6, r7, lr}
 8001d72:	4605      	mov	r5, r0
 8001d74:	460f      	mov	r7, r1
 8001d76:	b931      	cbnz	r1, 8001d86 <create_chain+0x16>
 8001d78:	68c6      	ldr	r6, [r0, #12]
 8001d7a:	b176      	cbz	r6, 8001d9a <create_chain+0x2a>
 8001d7c:	69c0      	ldr	r0, [r0, #28]
 8001d7e:	4286      	cmp	r6, r0
 8001d80:	bf28      	it	cs
 8001d82:	2601      	movcs	r6, #1
 8001d84:	e00a      	b.n	8001d9c <create_chain+0x2c>
 8001d86:	f7ff fec4 	bl	8001b12 <get_fat>
 8001d8a:	2801      	cmp	r0, #1
 8001d8c:	d800      	bhi.n	8001d90 <create_chain+0x20>
 8001d8e:	e03b      	b.n	8001e08 <create_chain+0x98>
 8001d90:	69eb      	ldr	r3, [r5, #28]
 8001d92:	4298      	cmp	r0, r3
 8001d94:	d339      	bcc.n	8001e0a <create_chain+0x9a>
 8001d96:	463e      	mov	r6, r7
 8001d98:	e000      	b.n	8001d9c <create_chain+0x2c>
 8001d9a:	2601      	movs	r6, #1
 8001d9c:	4634      	mov	r4, r6
 8001d9e:	69e9      	ldr	r1, [r5, #28]
 8001da0:	3401      	adds	r4, #1
 8001da2:	428c      	cmp	r4, r1
 8001da4:	d304      	bcc.n	8001db0 <create_chain+0x40>
 8001da6:	2e01      	cmp	r6, #1
 8001da8:	d801      	bhi.n	8001dae <create_chain+0x3e>
 8001daa:	2000      	movs	r0, #0
 8001dac:	bdf8      	pop	{r3, r4, r5, r6, r7, pc}
 8001dae:	2402      	movs	r4, #2
 8001db0:	4628      	mov	r0, r5
 8001db2:	4621      	mov	r1, r4
 8001db4:	f7ff fead 	bl	8001b12 <get_fat>
 8001db8:	b148      	cbz	r0, 8001dce <create_chain+0x5e>
 8001dba:	1c41      	adds	r1, r0, #1
 8001dbc:	d102      	bne.n	8001dc4 <create_chain+0x54>
 8001dbe:	f04f 30ff 	mov.w	r0, #4294967295
 8001dc2:	bdf8      	pop	{r3, r4, r5, r6, r7, pc}
 8001dc4:	2801      	cmp	r0, #1
 8001dc6:	d01f      	beq.n	8001e08 <create_chain+0x98>
 8001dc8:	42b4      	cmp	r4, r6
 8001dca:	d1e8      	bne.n	8001d9e <create_chain+0x2e>
 8001dcc:	e7ed      	b.n	8001daa <create_chain+0x3a>
 8001dce:	4628      	mov	r0, r5
 8001dd0:	4621      	mov	r1, r4
 8001dd2:	f06f 4270 	mvn.w	r2, #4026531840	; 0xf0000000
 8001dd6:	f7ff ff48 	bl	8001c6a <put_fat>
 8001dda:	b998      	cbnz	r0, 8001e04 <create_chain+0x94>
 8001ddc:	b927      	cbnz	r7, 8001de8 <create_chain+0x78>
 8001dde:	692b      	ldr	r3, [r5, #16]
 8001de0:	60ec      	str	r4, [r5, #12]
 8001de2:	1c5a      	adds	r2, r3, #1
 8001de4:	d108      	bne.n	8001df8 <create_chain+0x88>
 8001de6:	e00b      	b.n	8001e00 <create_chain+0x90>
 8001de8:	4628      	mov	r0, r5
 8001dea:	4639      	mov	r1, r7
 8001dec:	4622      	mov	r2, r4
 8001dee:	f7ff ff3c 	bl	8001c6a <put_fat>
 8001df2:	2800      	cmp	r0, #0
 8001df4:	d0f3      	beq.n	8001dde <create_chain+0x6e>
 8001df6:	e005      	b.n	8001e04 <create_chain+0x94>
 8001df8:	1e5a      	subs	r2, r3, #1
 8001dfa:	2001      	movs	r0, #1
 8001dfc:	612a      	str	r2, [r5, #16]
 8001dfe:	7168      	strb	r0, [r5, #5]
 8001e00:	4620      	mov	r0, r4
 8001e02:	bdf8      	pop	{r3, r4, r5, r6, r7, pc}
 8001e04:	2801      	cmp	r0, #1
 8001e06:	d0da      	beq.n	8001dbe <create_chain+0x4e>
 8001e08:	2001      	movs	r0, #1
 8001e0a:	bdf8      	pop	{r3, r4, r5, r6, r7, pc}

08001e0c <dir_next>:
 8001e0c:	e92d 43f8 	stmdb	sp!, {r3, r4, r5, r6, r7, r8, r9, lr}
 8001e10:	88c6      	ldrh	r6, [r0, #6]
 8001e12:	4604      	mov	r4, r0
 8001e14:	1c70      	adds	r0, r6, #1
 8001e16:	b286      	uxth	r6, r0
 8001e18:	460f      	mov	r7, r1
 8001e1a:	b916      	cbnz	r6, 8001e22 <dir_next+0x16>
 8001e1c:	2004      	movs	r0, #4
 8001e1e:	e8bd 83f8 	ldmia.w	sp!, {r3, r4, r5, r6, r7, r8, r9, pc}
 8001e22:	6923      	ldr	r3, [r4, #16]
 8001e24:	2b00      	cmp	r3, #0
 8001e26:	d0f9      	beq.n	8001e1c <dir_next+0x10>
 8001e28:	f016 080f 	ands.w	r8, r6, #15
 8001e2c:	d161      	bne.n	8001ef2 <dir_next+0xe6>
 8001e2e:	1c59      	adds	r1, r3, #1
 8001e30:	6121      	str	r1, [r4, #16]
 8001e32:	68e1      	ldr	r1, [r4, #12]
 8001e34:	6820      	ldr	r0, [r4, #0]
 8001e36:	b919      	cbnz	r1, 8001e40 <dir_next+0x34>
 8001e38:	8901      	ldrh	r1, [r0, #8]
 8001e3a:	42b1      	cmp	r1, r6
 8001e3c:	d9ee      	bls.n	8001e1c <dir_next+0x10>
 8001e3e:	e058      	b.n	8001ef2 <dir_next+0xe6>
 8001e40:	7882      	ldrb	r2, [r0, #2]
 8001e42:	1e53      	subs	r3, r2, #1
 8001e44:	ea13 1216 	ands.w	r2, r3, r6, lsr #4
 8001e48:	d153      	bne.n	8001ef2 <dir_next+0xe6>
 8001e4a:	f7ff fe62 	bl	8001b12 <get_fat>
 8001e4e:	2801      	cmp	r0, #1
 8001e50:	4605      	mov	r5, r0
 8001e52:	d802      	bhi.n	8001e5a <dir_next+0x4e>
 8001e54:	2002      	movs	r0, #2
 8001e56:	e8bd 83f8 	ldmia.w	sp!, {r3, r4, r5, r6, r7, r8, r9, pc}
 8001e5a:	1c43      	adds	r3, r0, #1
 8001e5c:	d102      	bne.n	8001e64 <dir_next+0x58>
 8001e5e:	2001      	movs	r0, #1
 8001e60:	e8bd 83f8 	ldmia.w	sp!, {r3, r4, r5, r6, r7, r8, r9, pc}
 8001e64:	6820      	ldr	r0, [r4, #0]
 8001e66:	69c1      	ldr	r1, [r0, #28]
 8001e68:	428d      	cmp	r5, r1
 8001e6a:	d33c      	bcc.n	8001ee6 <dir_next+0xda>
 8001e6c:	2f00      	cmp	r7, #0
 8001e6e:	d0d5      	beq.n	8001e1c <dir_next+0x10>
 8001e70:	68e1      	ldr	r1, [r4, #12]
 8001e72:	f7ff ff7d 	bl	8001d70 <create_chain>
 8001e76:	4605      	mov	r5, r0
 8001e78:	2800      	cmp	r0, #0
 8001e7a:	d044      	beq.n	8001f06 <dir_next+0xfa>
 8001e7c:	2801      	cmp	r0, #1
 8001e7e:	d0e9      	beq.n	8001e54 <dir_next+0x48>
 8001e80:	3001      	adds	r0, #1
 8001e82:	d0ec      	beq.n	8001e5e <dir_next+0x52>
 8001e84:	6820      	ldr	r0, [r4, #0]
 8001e86:	2100      	movs	r1, #0
 8001e88:	f7ff fba7 	bl	80015da <move_window>
 8001e8c:	2800      	cmp	r0, #0
 8001e8e:	d1e6      	bne.n	8001e5e <dir_next+0x52>
 8001e90:	6827      	ldr	r7, [r4, #0]
 8001e92:	4602      	mov	r2, r0
 8001e94:	f107 0934 	add.w	r9, r7, #52	; 0x34
 8001e98:	f809 2000 	strb.w	r2, [r9, r0]
 8001e9c:	3001      	adds	r0, #1
 8001e9e:	f5b0 7f00 	cmp.w	r0, #512	; 0x200
 8001ea2:	d1f9      	bne.n	8001e98 <dir_next+0x8c>
 8001ea4:	6827      	ldr	r7, [r4, #0]
 8001ea6:	4629      	mov	r1, r5
 8001ea8:	4638      	mov	r0, r7
 8001eaa:	f7ff fe25 	bl	8001af8 <clust2sect>
 8001eae:	f04f 0901 	mov.w	r9, #1
 8001eb2:	6338      	str	r0, [r7, #48]	; 0x30
 8001eb4:	2700      	movs	r7, #0
 8001eb6:	e00f      	b.n	8001ed8 <dir_next+0xcc>
 8001eb8:	f880 9004 	strb.w	r9, [r0, #4]
 8001ebc:	6820      	ldr	r0, [r4, #0]
 8001ebe:	2100      	movs	r1, #0
 8001ec0:	f7ff fb8b 	bl	80015da <move_window>
 8001ec4:	2800      	cmp	r0, #0
 8001ec6:	d1ca      	bne.n	8001e5e <dir_next+0x52>
 8001ec8:	6820      	ldr	r0, [r4, #0]
 8001eca:	f107 0c01 	add.w	ip, r7, #1
 8001ece:	6b02      	ldr	r2, [r0, #48]	; 0x30
 8001ed0:	fa5f f78c 	uxtb.w	r7, ip
 8001ed4:	1c53      	adds	r3, r2, #1
 8001ed6:	6303      	str	r3, [r0, #48]	; 0x30
 8001ed8:	6820      	ldr	r0, [r4, #0]
 8001eda:	7883      	ldrb	r3, [r0, #2]
 8001edc:	42bb      	cmp	r3, r7
 8001ede:	d8eb      	bhi.n	8001eb8 <dir_next+0xac>
 8001ee0:	6b01      	ldr	r1, [r0, #48]	; 0x30
 8001ee2:	1bcf      	subs	r7, r1, r7
 8001ee4:	6307      	str	r7, [r0, #48]	; 0x30
 8001ee6:	60e5      	str	r5, [r4, #12]
 8001ee8:	6820      	ldr	r0, [r4, #0]
 8001eea:	4629      	mov	r1, r5
 8001eec:	f7ff fe04 	bl	8001af8 <clust2sect>
 8001ef0:	6120      	str	r0, [r4, #16]
 8001ef2:	6820      	ldr	r0, [r4, #0]
 8001ef4:	80e6      	strh	r6, [r4, #6]
 8001ef6:	eb00 1248 	add.w	r2, r0, r8, lsl #5
 8001efa:	f102 0334 	add.w	r3, r2, #52	; 0x34
 8001efe:	6163      	str	r3, [r4, #20]
 8001f00:	2000      	movs	r0, #0
 8001f02:	e8bd 83f8 	ldmia.w	sp!, {r3, r4, r5, r6, r7, r8, r9, pc}
 8001f06:	2007      	movs	r0, #7
 8001f08:	e8bd 83f8 	ldmia.w	sp!, {r3, r4, r5, r6, r7, r8, r9, pc}

08001f0c <dir_find.part.4>:
 8001f0c:	e92d 4ff8 	stmdb	sp!, {r3, r4, r5, r6, r7, r8, r9, sl, fp, lr}
 8001f10:	f04f 09ff 	mov.w	r9, #255	; 0xff
 8001f14:	4606      	mov	r6, r0
 8001f16:	464c      	mov	r4, r9
 8001f18:	6830      	ldr	r0, [r6, #0]
 8001f1a:	6931      	ldr	r1, [r6, #16]
 8001f1c:	f7ff fb5d 	bl	80015da <move_window>
 8001f20:	4680      	mov	r8, r0
 8001f22:	2800      	cmp	r0, #0
 8001f24:	f040 8084 	bne.w	8002030 <dir_find.part.4+0x124>
 8001f28:	6975      	ldr	r5, [r6, #20]
 8001f2a:	782f      	ldrb	r7, [r5, #0]
 8001f2c:	2f00      	cmp	r7, #0
 8001f2e:	d079      	beq.n	8002024 <dir_find.part.4+0x118>
 8001f30:	7aea      	ldrb	r2, [r5, #11]
 8001f32:	2fe5      	cmp	r7, #229	; 0xe5
 8001f34:	f002 033f 	and.w	r3, r2, #63	; 0x3f
 8001f38:	d06a      	beq.n	8002010 <dir_find.part.4+0x104>
 8001f3a:	0710      	lsls	r0, r2, #28
 8001f3c:	d502      	bpl.n	8001f44 <dir_find.part.4+0x38>
 8001f3e:	2b0f      	cmp	r3, #15
 8001f40:	d166      	bne.n	8002010 <dir_find.part.4+0x104>
 8001f42:	e001      	b.n	8001f48 <dir_find.part.4+0x3c>
 8001f44:	2b0f      	cmp	r3, #15
 8001f46:	d14c      	bne.n	8001fe2 <dir_find.part.4+0xd6>
 8001f48:	f8d6 b01c 	ldr.w	fp, [r6, #28]
 8001f4c:	f1bb 0f00 	cmp.w	fp, #0
 8001f50:	d05f      	beq.n	8002012 <dir_find.part.4+0x106>
 8001f52:	0679      	lsls	r1, r7, #25
 8001f54:	d506      	bpl.n	8001f64 <dir_find.part.4+0x58>
 8001f56:	88f4      	ldrh	r4, [r6, #6]
 8001f58:	f895 900d 	ldrb.w	r9, [r5, #13]
 8001f5c:	f007 07bf 	and.w	r7, r7, #191	; 0xbf
 8001f60:	8434      	strh	r4, [r6, #32]
 8001f62:	e001      	b.n	8001f68 <dir_find.part.4+0x5c>
 8001f64:	42a7      	cmp	r7, r4
 8001f66:	d153      	bne.n	8002010 <dir_find.part.4+0x104>
 8001f68:	7b69      	ldrb	r1, [r5, #13]
 8001f6a:	4549      	cmp	r1, r9
 8001f6c:	d150      	bne.n	8002010 <dir_find.part.4+0x104>
 8001f6e:	7828      	ldrb	r0, [r5, #0]
 8001f70:	f04f 0a0d 	mov.w	sl, #13
 8001f74:	f020 0840 	bic.w	r8, r0, #64	; 0x40
 8001f78:	f108 32ff 	add.w	r2, r8, #4294967295
 8001f7c:	fb0a f402 	mul.w	r4, sl, r2
 8001f80:	f04f 0801 	mov.w	r8, #1
 8001f84:	f04f 0a00 	mov.w	sl, #0
 8001f88:	4b2b      	ldr	r3, [pc, #172]	; (8002038 <dir_find.part.4+0x12c>)
 8001f8a:	f81a e003 	ldrb.w	lr, [sl, r3]
 8001f8e:	eb05 010e 	add.w	r1, r5, lr
 8001f92:	f891 c001 	ldrb.w	ip, [r1, #1]
 8001f96:	f815 000e 	ldrb.w	r0, [r5, lr]
 8001f9a:	ea40 200c 	orr.w	r0, r0, ip, lsl #8
 8001f9e:	f1b8 0f00 	cmp.w	r8, #0
 8001fa2:	d00b      	beq.n	8001fbc <dir_find.part.4+0xb0>
 8001fa4:	f7ff fa46 	bl	8001434 <ff_wtoupper>
 8001fa8:	2cfe      	cmp	r4, #254	; 0xfe
 8001faa:	4680      	mov	r8, r0
 8001fac:	d830      	bhi.n	8002010 <dir_find.part.4+0x104>
 8001fae:	f83b 0014 	ldrh.w	r0, [fp, r4, lsl #1]
 8001fb2:	f7ff fa3f 	bl	8001434 <ff_wtoupper>
 8001fb6:	3401      	adds	r4, #1
 8001fb8:	4580      	cmp	r8, r0
 8001fba:	e002      	b.n	8001fc2 <dir_find.part.4+0xb6>
 8001fbc:	f64f 72ff 	movw	r2, #65535	; 0xffff
 8001fc0:	4290      	cmp	r0, r2
 8001fc2:	d125      	bne.n	8002010 <dir_find.part.4+0x104>
 8001fc4:	f10a 0a01 	add.w	sl, sl, #1
 8001fc8:	f1ba 0f0d 	cmp.w	sl, #13
 8001fcc:	d1dc      	bne.n	8001f88 <dir_find.part.4+0x7c>
 8001fce:	782b      	ldrb	r3, [r5, #0]
 8001fd0:	065a      	lsls	r2, r3, #25
 8001fd2:	d52a      	bpl.n	800202a <dir_find.part.4+0x11e>
 8001fd4:	f1b8 0f00 	cmp.w	r8, #0
 8001fd8:	d027      	beq.n	800202a <dir_find.part.4+0x11e>
 8001fda:	f83b 4014 	ldrh.w	r4, [fp, r4, lsl #1]
 8001fde:	b324      	cbz	r4, 800202a <dir_find.part.4+0x11e>
 8001fe0:	e016      	b.n	8002010 <dir_find.part.4+0x104>
 8001fe2:	b924      	cbnz	r4, 8001fee <dir_find.part.4+0xe2>
 8001fe4:	4628      	mov	r0, r5
 8001fe6:	f7ff fa61 	bl	80014ac <sum_sfn>
 8001fea:	4581      	cmp	r9, r0
 8001fec:	d020      	beq.n	8002030 <dir_find.part.4+0x124>
 8001fee:	f04f 30ff 	mov.w	r0, #4294967295
 8001ff2:	69b2      	ldr	r2, [r6, #24]
 8001ff4:	8430      	strh	r0, [r6, #32]
 8001ff6:	7ad1      	ldrb	r1, [r2, #11]
 8001ff8:	f011 0301 	ands.w	r3, r1, #1
 8001ffc:	d002      	beq.n	8002004 <dir_find.part.4+0xf8>
 8001ffe:	e007      	b.n	8002010 <dir_find.part.4+0x104>
 8002000:	2b0b      	cmp	r3, #11
 8002002:	d015      	beq.n	8002030 <dir_find.part.4+0x124>
 8002004:	f815 c003 	ldrb.w	ip, [r5, r3]
 8002008:	5cd0      	ldrb	r0, [r2, r3]
 800200a:	3301      	adds	r3, #1
 800200c:	4584      	cmp	ip, r0
 800200e:	d0f7      	beq.n	8002000 <dir_find.part.4+0xf4>
 8002010:	24ff      	movs	r4, #255	; 0xff
 8002012:	4630      	mov	r0, r6
 8002014:	2100      	movs	r1, #0
 8002016:	f7ff fef9 	bl	8001e0c <dir_next>
 800201a:	4680      	mov	r8, r0
 800201c:	2800      	cmp	r0, #0
 800201e:	f43f af7b 	beq.w	8001f18 <dir_find.part.4+0xc>
 8002022:	e005      	b.n	8002030 <dir_find.part.4+0x124>
 8002024:	f04f 0804 	mov.w	r8, #4
 8002028:	e002      	b.n	8002030 <dir_find.part.4+0x124>
 800202a:	1e79      	subs	r1, r7, #1
 800202c:	b2cc      	uxtb	r4, r1
 800202e:	e7f0      	b.n	8002012 <dir_find.part.4+0x106>
 8002030:	4640      	mov	r0, r8
 8002032:	e8bd 8ff8 	ldmia.w	sp!, {r3, r4, r5, r6, r7, r8, r9, sl, fp, pc}
 8002036:	bf00      	nop
 8002038:	08011782 	stmdaeq	r1, {r1, r7, r8, r9, sl, ip}

0800203c <follow_path>:
 800203c:	e92d 4ff7 	stmdb	sp!, {r0, r1, r2, r4, r5, r6, r7, r8, r9, sl, fp, lr}
 8002040:	780b      	ldrb	r3, [r1, #0]
 8002042:	4605      	mov	r5, r0
 8002044:	2b2f      	cmp	r3, #47	; 0x2f
 8002046:	468b      	mov	fp, r1
 8002048:	d001      	beq.n	800204e <follow_path+0x12>
 800204a:	2b5c      	cmp	r3, #92	; 0x5c
 800204c:	d103      	bne.n	8002056 <follow_path+0x1a>
 800204e:	f10b 0b01 	add.w	fp, fp, #1
 8002052:	2100      	movs	r1, #0
 8002054:	e001      	b.n	800205a <follow_path+0x1e>
 8002056:	6800      	ldr	r0, [r0, #0]
 8002058:	6981      	ldr	r1, [r0, #24]
 800205a:	60a9      	str	r1, [r5, #8]
 800205c:	f89b 2000 	ldrb.w	r2, [fp]
 8002060:	2a1f      	cmp	r2, #31
 8002062:	d806      	bhi.n	8002072 <follow_path+0x36>
 8002064:	4628      	mov	r0, r5
 8002066:	2100      	movs	r1, #0
 8002068:	f7ff fdbc 	bl	8001be4 <dir_sdi>
 800206c:	2300      	movs	r3, #0
 800206e:	616b      	str	r3, [r5, #20]
 8002070:	e17b      	b.n	800236a <follow_path+0x32e>
 8002072:	465c      	mov	r4, fp
 8002074:	7827      	ldrb	r7, [r4, #0]
 8002076:	f10b 0b01 	add.w	fp, fp, #1
 800207a:	2f2f      	cmp	r7, #47	; 0x2f
 800207c:	d0f9      	beq.n	8002072 <follow_path+0x36>
 800207e:	2f5c      	cmp	r7, #92	; 0x5c
 8002080:	d0f7      	beq.n	8002072 <follow_path+0x36>
 8002082:	2700      	movs	r7, #0
 8002084:	f8d5 a01c 	ldr.w	sl, [r5, #28]
 8002088:	463b      	mov	r3, r7
 800208a:	5ce0      	ldrb	r0, [r4, r3]
 800208c:	f103 0b01 	add.w	fp, r3, #1
 8002090:	281f      	cmp	r0, #31
 8002092:	d935      	bls.n	8002100 <follow_path+0xc4>
 8002094:	282f      	cmp	r0, #47	; 0x2f
 8002096:	d033      	beq.n	8002100 <follow_path+0xc4>
 8002098:	285c      	cmp	r0, #92	; 0x5c
 800209a:	d031      	beq.n	8002100 <follow_path+0xc4>
 800209c:	2fff      	cmp	r7, #255	; 0xff
 800209e:	f000 8157 	beq.w	8002350 <follow_path+0x314>
 80020a2:	f100 017f 	add.w	r1, r0, #127	; 0x7f
 80020a6:	b2ca      	uxtb	r2, r1
 80020a8:	2a1e      	cmp	r2, #30
 80020aa:	d904      	bls.n	80020b6 <follow_path+0x7a>
 80020ac:	f100 0120 	add.w	r1, r0, #32
 80020b0:	b2ca      	uxtb	r2, r1
 80020b2:	2a1c      	cmp	r2, #28
 80020b4:	d810      	bhi.n	80020d8 <follow_path+0x9c>
 80020b6:	f814 c00b 	ldrb.w	ip, [r4, fp]
 80020ba:	f103 0b02 	add.w	fp, r3, #2
 80020be:	f1ac 0340 	sub.w	r3, ip, #64	; 0x40
 80020c2:	2b3e      	cmp	r3, #62	; 0x3e
 80020c4:	d904      	bls.n	80020d0 <follow_path+0x94>
 80020c6:	f08c 0180 	eor.w	r1, ip, #128	; 0x80
 80020ca:	297c      	cmp	r1, #124	; 0x7c
 80020cc:	f200 8140 	bhi.w	8002350 <follow_path+0x314>
 80020d0:	eb0c 2e00 	add.w	lr, ip, r0, lsl #8
 80020d4:	fa1f f08e 	uxth.w	r0, lr
 80020d8:	2101      	movs	r1, #1
 80020da:	f7ff f97b 	bl	80013d4 <ff_convert>
 80020de:	2800      	cmp	r0, #0
 80020e0:	f000 8136 	beq.w	8002350 <follow_path+0x314>
 80020e4:	287f      	cmp	r0, #127	; 0x7f
 80020e6:	d806      	bhi.n	80020f6 <follow_path+0xba>
 80020e8:	4aa1      	ldr	r2, [pc, #644]	; (8002370 <follow_path+0x334>)
 80020ea:	f812 3f01 	ldrb.w	r3, [r2, #1]!
 80020ee:	b113      	cbz	r3, 80020f6 <follow_path+0xba>
 80020f0:	4283      	cmp	r3, r0
 80020f2:	d1fa      	bne.n	80020ea <follow_path+0xae>
 80020f4:	e12c      	b.n	8002350 <follow_path+0x314>
 80020f6:	f82a 0017 	strh.w	r0, [sl, r7, lsl #1]
 80020fa:	465b      	mov	r3, fp
 80020fc:	3701      	adds	r7, #1
 80020fe:	e7c4      	b.n	800208a <follow_path+0x4e>
 8002100:	44a3      	add	fp, r4
 8002102:	281f      	cmp	r0, #31
 8002104:	bf94      	ite	ls
 8002106:	2404      	movls	r4, #4
 8002108:	2400      	movhi	r4, #0
 800210a:	2f01      	cmp	r7, #1
 800210c:	463e      	mov	r6, r7
 800210e:	d100      	bne.n	8002112 <follow_path+0xd6>
 8002110:	e00a      	b.n	8002128 <follow_path+0xec>
 8002112:	2f02      	cmp	r7, #2
 8002114:	d104      	bne.n	8002120 <follow_path+0xe4>
 8002116:	f8ba 0002 	ldrh.w	r0, [sl, #2]
 800211a:	282e      	cmp	r0, #46	; 0x2e
 800211c:	d101      	bne.n	8002122 <follow_path+0xe6>
 800211e:	e003      	b.n	8002128 <follow_path+0xec>
 8002120:	463e      	mov	r6, r7
 8002122:	eb0a 0747 	add.w	r7, sl, r7, lsl #1
 8002126:	e01b      	b.n	8002160 <follow_path+0x124>
 8002128:	f8ba 1000 	ldrh.w	r1, [sl]
 800212c:	292e      	cmp	r1, #46	; 0x2e
 800212e:	d1f8      	bne.n	8002122 <follow_path+0xe6>
 8002130:	2300      	movs	r3, #0
 8002132:	f82a 3017 	strh.w	r3, [sl, r7, lsl #1]
 8002136:	69aa      	ldr	r2, [r5, #24]
 8002138:	42bb      	cmp	r3, r7
 800213a:	bf2c      	ite	cs
 800213c:	2120      	movcs	r1, #32
 800213e:	212e      	movcc	r1, #46	; 0x2e
 8002140:	54d1      	strb	r1, [r2, r3]
 8002142:	3301      	adds	r3, #1
 8002144:	2b0b      	cmp	r3, #11
 8002146:	d1f6      	bne.n	8002136 <follow_path+0xfa>
 8002148:	69a8      	ldr	r0, [r5, #24]
 800214a:	f044 0420 	orr.w	r4, r4, #32
 800214e:	e0c1      	b.n	80022d4 <follow_path+0x298>
 8002150:	f837 2d02 	ldrh.w	r2, [r7, #-2]!
 8002154:	2a20      	cmp	r2, #32
 8002156:	d002      	beq.n	800215e <follow_path+0x122>
 8002158:	2a2e      	cmp	r2, #46	; 0x2e
 800215a:	f040 80eb 	bne.w	8002334 <follow_path+0x2f8>
 800215e:	3e01      	subs	r6, #1
 8002160:	2e00      	cmp	r6, #0
 8002162:	d1f5      	bne.n	8002150 <follow_path+0x114>
 8002164:	e0f4      	b.n	8002350 <follow_path+0x314>
 8002166:	55d8      	strb	r0, [r3, r7]
 8002168:	3701      	adds	r7, #1
 800216a:	2f0b      	cmp	r7, #11
 800216c:	d1fb      	bne.n	8002166 <follow_path+0x12a>
 800216e:	f04f 0800 	mov.w	r8, #0
 8002172:	e001      	b.n	8002178 <follow_path+0x13c>
 8002174:	f108 0801 	add.w	r8, r8, #1
 8002178:	f83a 1018 	ldrh.w	r1, [sl, r8, lsl #1]
 800217c:	2920      	cmp	r1, #32
 800217e:	d0f9      	beq.n	8002174 <follow_path+0x138>
 8002180:	292e      	cmp	r1, #46	; 0x2e
 8002182:	d0f7      	beq.n	8002174 <follow_path+0x138>
 8002184:	f1b8 0f00 	cmp.w	r8, #0
 8002188:	d002      	beq.n	8002190 <follow_path+0x154>
 800218a:	f044 0403 	orr.w	r4, r4, #3
 800218e:	b2e4      	uxtb	r4, r4
 8002190:	464f      	mov	r7, r9
 8002192:	e006      	b.n	80021a2 <follow_path+0x166>
 8002194:	3e01      	subs	r6, #1
 8002196:	d104      	bne.n	80021a2 <follow_path+0x166>
 8002198:	f04f 0900 	mov.w	r9, #0
 800219c:	2308      	movs	r3, #8
 800219e:	464f      	mov	r7, r9
 80021a0:	e004      	b.n	80021ac <follow_path+0x170>
 80021a2:	f837 2d02 	ldrh.w	r2, [r7, #-2]!
 80021a6:	2a2e      	cmp	r2, #46	; 0x2e
 80021a8:	d1f4      	bne.n	8002194 <follow_path+0x158>
 80021aa:	e7f5      	b.n	8002198 <follow_path+0x15c>
 80021ac:	f83a 0018 	ldrh.w	r0, [sl, r8, lsl #1]
 80021b0:	f108 0801 	add.w	r8, r8, #1
 80021b4:	2800      	cmp	r0, #0
 80021b6:	d068      	beq.n	800228a <follow_path+0x24e>
 80021b8:	2820      	cmp	r0, #32
 80021ba:	d004      	beq.n	80021c6 <follow_path+0x18a>
 80021bc:	282e      	cmp	r0, #46	; 0x2e
 80021be:	d107      	bne.n	80021d0 <follow_path+0x194>
 80021c0:	45b0      	cmp	r8, r6
 80021c2:	f000 80ce 	beq.w	8002362 <follow_path+0x326>
 80021c6:	f044 0c03 	orr.w	ip, r4, #3
 80021ca:	fa5f f48c 	uxtb.w	r4, ip
 80021ce:	e7ed      	b.n	80021ac <follow_path+0x170>
 80021d0:	4599      	cmp	r9, r3
 80021d2:	d202      	bcs.n	80021da <follow_path+0x19e>
 80021d4:	45b0      	cmp	r8, r6
 80021d6:	d116      	bne.n	8002206 <follow_path+0x1ca>
 80021d8:	e0c3      	b.n	8002362 <follow_path+0x326>
 80021da:	2b0b      	cmp	r3, #11
 80021dc:	d104      	bne.n	80021e8 <follow_path+0x1ac>
 80021de:	f044 0303 	orr.w	r3, r4, #3
 80021e2:	b2dc      	uxtb	r4, r3
 80021e4:	230b      	movs	r3, #11
 80021e6:	e050      	b.n	800228a <follow_path+0x24e>
 80021e8:	45b0      	cmp	r8, r6
 80021ea:	d003      	beq.n	80021f4 <follow_path+0x1b8>
 80021ec:	f044 0203 	orr.w	r2, r4, #3
 80021f0:	b2d4      	uxtb	r4, r2
 80021f2:	d84a      	bhi.n	800228a <follow_path+0x24e>
 80021f4:	ea4f 0887 	mov.w	r8, r7, lsl #2
 80021f8:	fa5f f788 	uxtb.w	r7, r8
 80021fc:	230b      	movs	r3, #11
 80021fe:	46b0      	mov	r8, r6
 8002200:	f04f 0908 	mov.w	r9, #8
 8002204:	e7d2      	b.n	80021ac <follow_path+0x170>
 8002206:	287f      	cmp	r0, #127	; 0x7f
 8002208:	d91e      	bls.n	8002248 <follow_path+0x20c>
 800220a:	9301      	str	r3, [sp, #4]
 800220c:	f7ff f912 	bl	8001434 <ff_wtoupper>
 8002210:	2100      	movs	r1, #0
 8002212:	f7ff f8df 	bl	80013d4 <ff_convert>
 8002216:	f044 0302 	orr.w	r3, r4, #2
 800221a:	28ff      	cmp	r0, #255	; 0xff
 800221c:	b2d9      	uxtb	r1, r3
 800221e:	9b01      	ldr	r3, [sp, #4]
 8002220:	d910      	bls.n	8002244 <follow_path+0x208>
 8002222:	f103 3eff 	add.w	lr, r3, #4294967295
 8002226:	45f1      	cmp	r9, lr
 8002228:	d304      	bcc.n	8002234 <follow_path+0x1f8>
 800222a:	f044 0003 	orr.w	r0, r4, #3
 800222e:	b2c4      	uxtb	r4, r0
 8002230:	4699      	mov	r9, r3
 8002232:	e7bb      	b.n	80021ac <follow_path+0x170>
 8002234:	69aa      	ldr	r2, [r5, #24]
 8002236:	0a04      	lsrs	r4, r0, #8
 8002238:	f802 4009 	strb.w	r4, [r2, r9]
 800223c:	f109 0901 	add.w	r9, r9, #1
 8002240:	460c      	mov	r4, r1
 8002242:	e01c      	b.n	800227e <follow_path+0x242>
 8002244:	b140      	cbz	r0, 8002258 <follow_path+0x21c>
 8002246:	460c      	mov	r4, r1
 8002248:	494a      	ldr	r1, [pc, #296]	; (8002374 <follow_path+0x338>)
 800224a:	f811 2f01 	ldrb.w	r2, [r1, #1]!
 800224e:	2a00      	cmp	r2, #0
 8002250:	d078      	beq.n	8002344 <follow_path+0x308>
 8002252:	4282      	cmp	r2, r0
 8002254:	d1f9      	bne.n	800224a <follow_path+0x20e>
 8002256:	4621      	mov	r1, r4
 8002258:	f041 0003 	orr.w	r0, r1, #3
 800225c:	b2c4      	uxtb	r4, r0
 800225e:	205f      	movs	r0, #95	; 0x5f
 8002260:	e00d      	b.n	800227e <follow_path+0x242>
 8002262:	f047 0702 	orr.w	r7, r7, #2
 8002266:	e00a      	b.n	800227e <follow_path+0x242>
 8002268:	f1a0 0161 	sub.w	r1, r0, #97	; 0x61
 800226c:	b28a      	uxth	r2, r1
 800226e:	2a19      	cmp	r2, #25
 8002270:	d805      	bhi.n	800227e <follow_path+0x242>
 8002272:	f1a0 0c20 	sub.w	ip, r0, #32
 8002276:	f047 0701 	orr.w	r7, r7, #1
 800227a:	fa1f f08c 	uxth.w	r0, ip
 800227e:	69a9      	ldr	r1, [r5, #24]
 8002280:	f801 0009 	strb.w	r0, [r1, r9]
 8002284:	f109 0901 	add.w	r9, r9, #1
 8002288:	e790      	b.n	80021ac <follow_path+0x170>
 800228a:	69a8      	ldr	r0, [r5, #24]
 800228c:	7801      	ldrb	r1, [r0, #0]
 800228e:	29e5      	cmp	r1, #229	; 0xe5
 8002290:	bf04      	itt	eq
 8002292:	2105      	moveq	r1, #5
 8002294:	7001      	strbeq	r1, [r0, #0]
 8002296:	2b08      	cmp	r3, #8
 8002298:	bf04      	itt	eq
 800229a:	00bf      	lsleq	r7, r7, #2
 800229c:	b2ff      	uxtbeq	r7, r7
 800229e:	f007 030c 	and.w	r3, r7, #12
 80022a2:	2b0c      	cmp	r3, #12
 80022a4:	d003      	beq.n	80022ae <follow_path+0x272>
 80022a6:	f007 0203 	and.w	r2, r7, #3
 80022aa:	2a03      	cmp	r2, #3
 80022ac:	d103      	bne.n	80022b6 <follow_path+0x27a>
 80022ae:	f044 0e02 	orr.w	lr, r4, #2
 80022b2:	fa5f f48e 	uxtb.w	r4, lr
 80022b6:	07a0      	lsls	r0, r4, #30
 80022b8:	d40b      	bmi.n	80022d2 <follow_path+0x296>
 80022ba:	f007 0703 	and.w	r7, r7, #3
 80022be:	2f01      	cmp	r7, #1
 80022c0:	bf04      	itt	eq
 80022c2:	f044 0410 	orreq.w	r4, r4, #16
 80022c6:	b2e4      	uxtbeq	r4, r4
 80022c8:	2b04      	cmp	r3, #4
 80022ca:	bf04      	itt	eq
 80022cc:	f044 0408 	orreq.w	r4, r4, #8
 80022d0:	b2e4      	uxtbeq	r4, r4
 80022d2:	69a8      	ldr	r0, [r5, #24]
 80022d4:	72c4      	strb	r4, [r0, #11]
 80022d6:	e03d      	b.n	8002354 <follow_path+0x318>
 80022d8:	4628      	mov	r0, r5
 80022da:	f7ff fe17 	bl	8001f0c <dir_find.part.4>
 80022de:	69aa      	ldr	r2, [r5, #24]
 80022e0:	7ad1      	ldrb	r1, [r2, #11]
 80022e2:	b198      	cbz	r0, 800230c <follow_path+0x2d0>
 80022e4:	2804      	cmp	r0, #4
 80022e6:	d140      	bne.n	800236a <follow_path+0x32e>
 80022e8:	f011 0f20 	tst.w	r1, #32
 80022ec:	f001 0204 	and.w	r2, r1, #4
 80022f0:	d007      	beq.n	8002302 <follow_path+0x2c6>
 80022f2:	2100      	movs	r1, #0
 80022f4:	60a9      	str	r1, [r5, #8]
 80022f6:	6169      	str	r1, [r5, #20]
 80022f8:	2a00      	cmp	r2, #0
 80022fa:	f43f aeba 	beq.w	8002072 <follow_path+0x36>
 80022fe:	2000      	movs	r0, #0
 8002300:	e033      	b.n	800236a <follow_path+0x32e>
 8002302:	2a00      	cmp	r2, #0
 8002304:	bf14      	ite	ne
 8002306:	2004      	movne	r0, #4
 8002308:	2005      	moveq	r0, #5
 800230a:	e02e      	b.n	800236a <follow_path+0x32e>
 800230c:	0749      	lsls	r1, r1, #29
 800230e:	d4f6      	bmi.n	80022fe <follow_path+0x2c2>
 8002310:	6968      	ldr	r0, [r5, #20]
 8002312:	7ac3      	ldrb	r3, [r0, #11]
 8002314:	06da      	lsls	r2, r3, #27
 8002316:	d50b      	bpl.n	8002330 <follow_path+0x2f4>
 8002318:	7d47      	ldrb	r7, [r0, #21]
 800231a:	7d04      	ldrb	r4, [r0, #20]
 800231c:	7ec2      	ldrb	r2, [r0, #27]
 800231e:	7e81      	ldrb	r1, [r0, #26]
 8002320:	ea44 2a07 	orr.w	sl, r4, r7, lsl #8
 8002324:	ea41 2002 	orr.w	r0, r1, r2, lsl #8
 8002328:	ea40 430a 	orr.w	r3, r0, sl, lsl #16
 800232c:	60ab      	str	r3, [r5, #8]
 800232e:	e6a0      	b.n	8002072 <follow_path+0x36>
 8002330:	2005      	movs	r0, #5
 8002332:	e01a      	b.n	800236a <follow_path+0x32e>
 8002334:	2700      	movs	r7, #0
 8002336:	eb0a 0946 	add.w	r9, sl, r6, lsl #1
 800233a:	f82a 7016 	strh.w	r7, [sl, r6, lsl #1]
 800233e:	69ab      	ldr	r3, [r5, #24]
 8002340:	2020      	movs	r0, #32
 8002342:	e710      	b.n	8002166 <follow_path+0x12a>
 8002344:	f1a0 0141 	sub.w	r1, r0, #65	; 0x41
 8002348:	b28a      	uxth	r2, r1
 800234a:	2a19      	cmp	r2, #25
 800234c:	d989      	bls.n	8002262 <follow_path+0x226>
 800234e:	e78b      	b.n	8002268 <follow_path+0x22c>
 8002350:	2006      	movs	r0, #6
 8002352:	e00a      	b.n	800236a <follow_path+0x32e>
 8002354:	4628      	mov	r0, r5
 8002356:	2100      	movs	r1, #0
 8002358:	f7ff fc44 	bl	8001be4 <dir_sdi>
 800235c:	2800      	cmp	r0, #0
 800235e:	d0bb      	beq.n	80022d8 <follow_path+0x29c>
 8002360:	e7bd      	b.n	80022de <follow_path+0x2a2>
 8002362:	2b0b      	cmp	r3, #11
 8002364:	f47f af46 	bne.w	80021f4 <follow_path+0x1b8>
 8002368:	e739      	b.n	80021de <follow_path+0x1a2>
 800236a:	e8bd 8ffe 	ldmia.w	sp!, {r1, r2, r3, r4, r5, r6, r7, r8, r9, sl, fp, pc}
 800236e:	bf00      	nop
 8002370:	08011771 	stmdaeq	r1, {r0, r4, r5, r6, r8, r9, sl, ip}
 8002374:	0801177a 	stmdaeq	r1, {r1, r3, r4, r5, r6, r8, r9, sl, ip}

08002378 <remove_chain>:
 8002378:	2901      	cmp	r1, #1
 800237a:	b5f8      	push	{r3, r4, r5, r6, r7, lr}
 800237c:	4604      	mov	r4, r0
 800237e:	460d      	mov	r5, r1
 8002380:	d924      	bls.n	80023cc <remove_chain+0x54>
 8002382:	69c3      	ldr	r3, [r0, #28]
 8002384:	4299      	cmp	r1, r3
 8002386:	d221      	bcs.n	80023cc <remove_chain+0x54>
 8002388:	e019      	b.n	80023be <remove_chain+0x46>
 800238a:	4620      	mov	r0, r4
 800238c:	4629      	mov	r1, r5
 800238e:	f7ff fbc0 	bl	8001b12 <get_fat>
 8002392:	4606      	mov	r6, r0
 8002394:	b908      	cbnz	r0, 800239a <remove_chain+0x22>
 8002396:	2000      	movs	r0, #0
 8002398:	bdf8      	pop	{r3, r4, r5, r6, r7, pc}
 800239a:	2801      	cmp	r0, #1
 800239c:	d016      	beq.n	80023cc <remove_chain+0x54>
 800239e:	1c43      	adds	r3, r0, #1
 80023a0:	d012      	beq.n	80023c8 <remove_chain+0x50>
 80023a2:	4620      	mov	r0, r4
 80023a4:	4629      	mov	r1, r5
 80023a6:	2200      	movs	r2, #0
 80023a8:	f7ff fc5f 	bl	8001c6a <put_fat>
 80023ac:	b978      	cbnz	r0, 80023ce <remove_chain+0x56>
 80023ae:	6921      	ldr	r1, [r4, #16]
 80023b0:	1c4d      	adds	r5, r1, #1
 80023b2:	d002      	beq.n	80023ba <remove_chain+0x42>
 80023b4:	1c4a      	adds	r2, r1, #1
 80023b6:	6122      	str	r2, [r4, #16]
 80023b8:	7167      	strb	r7, [r4, #5]
 80023ba:	4635      	mov	r5, r6
 80023bc:	e000      	b.n	80023c0 <remove_chain+0x48>
 80023be:	2701      	movs	r7, #1
 80023c0:	69e0      	ldr	r0, [r4, #28]
 80023c2:	4285      	cmp	r5, r0
 80023c4:	d3e1      	bcc.n	800238a <remove_chain+0x12>
 80023c6:	e7e6      	b.n	8002396 <remove_chain+0x1e>
 80023c8:	2001      	movs	r0, #1
 80023ca:	bdf8      	pop	{r3, r4, r5, r6, r7, pc}
 80023cc:	2002      	movs	r0, #2
 80023ce:	bdf8      	pop	{r3, r4, r5, r6, r7, pc}

080023d0 <gen_numname>:
 80023d0:	b573      	push	{r0, r1, r4, r5, r6, lr}
 80023d2:	461c      	mov	r4, r3
 80023d4:	4616      	mov	r6, r2
 80023d6:	220b      	movs	r2, #11
 80023d8:	4605      	mov	r5, r0
 80023da:	f7ff f85e 	bl	800149a <mem_cpy>
 80023de:	2c05      	cmp	r4, #5
 80023e0:	d90a      	bls.n	80023f8 <gen_numname+0x28>
 80023e2:	1eb2      	subs	r2, r6, #2
 80023e4:	f832 1f02 	ldrh.w	r1, [r2, #2]!
 80023e8:	0863      	lsrs	r3, r4, #1
 80023ea:	ea43 34c4 	orr.w	r4, r3, r4, lsl #15
 80023ee:	8853      	ldrh	r3, [r2, #2]
 80023f0:	1860      	adds	r0, r4, r1
 80023f2:	b284      	uxth	r4, r0
 80023f4:	2b00      	cmp	r3, #0
 80023f6:	d1f5      	bne.n	80023e4 <gen_numname+0x14>
 80023f8:	2207      	movs	r2, #7
 80023fa:	f004 0c0f 	and.w	ip, r4, #15
 80023fe:	f10c 0130 	add.w	r1, ip, #48	; 0x30
 8002402:	2939      	cmp	r1, #57	; 0x39
 8002404:	bf88      	it	hi
 8002406:	f10c 0137 	addhi.w	r1, ip, #55	; 0x37
 800240a:	0924      	lsrs	r4, r4, #4
 800240c:	f80d 1002 	strb.w	r1, [sp, r2]
 8002410:	f102 32ff 	add.w	r2, r2, #4294967295
 8002414:	d1f1      	bne.n	80023fa <gen_numname+0x2a>
 8002416:	f10d 0e08 	add.w	lr, sp, #8
 800241a:	237e      	movs	r3, #126	; 0x7e
 800241c:	eb0e 0002 	add.w	r0, lr, r2
 8002420:	f800 3c08 	strb.w	r3, [r0, #-8]
 8002424:	f102 3cff 	add.w	ip, r2, #4294967295
 8002428:	4623      	mov	r3, r4
 800242a:	e00d      	b.n	8002448 <gen_numname+0x78>
 800242c:	f101 047f 	add.w	r4, r1, #127	; 0x7f
 8002430:	b2e4      	uxtb	r4, r4
 8002432:	2c1e      	cmp	r4, #30
 8002434:	d904      	bls.n	8002440 <gen_numname+0x70>
 8002436:	f101 0020 	add.w	r0, r1, #32
 800243a:	b2c1      	uxtb	r1, r0
 800243c:	291c      	cmp	r1, #28
 800243e:	d802      	bhi.n	8002446 <gen_numname+0x76>
 8002440:	4563      	cmp	r3, ip
 8002442:	d006      	beq.n	8002452 <gen_numname+0x82>
 8002444:	3301      	adds	r3, #1
 8002446:	3301      	adds	r3, #1
 8002448:	4293      	cmp	r3, r2
 800244a:	d202      	bcs.n	8002452 <gen_numname+0x82>
 800244c:	5ce9      	ldrb	r1, [r5, r3]
 800244e:	2920      	cmp	r1, #32
 8002450:	d1ec      	bne.n	800242c <gen_numname+0x5c>
 8002452:	2a07      	cmp	r2, #7
 8002454:	d807      	bhi.n	8002466 <gen_numname+0x96>
 8002456:	f10d 0e08 	add.w	lr, sp, #8
 800245a:	eb0e 0102 	add.w	r1, lr, r2
 800245e:	f811 0c08 	ldrb.w	r0, [r1, #-8]
 8002462:	3201      	adds	r2, #1
 8002464:	e000      	b.n	8002468 <gen_numname+0x98>
 8002466:	2020      	movs	r0, #32
 8002468:	54e8      	strb	r0, [r5, r3]
 800246a:	3301      	adds	r3, #1
 800246c:	2b07      	cmp	r3, #7
 800246e:	d9f0      	bls.n	8002452 <gen_numname+0x82>
 8002470:	bd7c      	pop	{r2, r3, r4, r5, r6, pc}
	...

08002474 <dir_register>:
 8002474:	e92d 4ff0 	stmdb	sp!, {r4, r5, r6, r7, r8, r9, sl, fp, lr}
 8002478:	6986      	ldr	r6, [r0, #24]
 800247a:	b085      	sub	sp, #20
 800247c:	ad01      	add	r5, sp, #4
 800247e:	f8d0 801c 	ldr.w	r8, [r0, #28]
 8002482:	4631      	mov	r1, r6
 8002484:	220c      	movs	r2, #12
 8002486:	4604      	mov	r4, r0
 8002488:	4628      	mov	r0, r5
 800248a:	f7ff f806 	bl	800149a <mem_cpy>
 800248e:	f89d 200f 	ldrb.w	r2, [sp, #15]
 8002492:	f002 0120 	and.w	r1, r2, #32
 8002496:	f001 03ff 	and.w	r3, r1, #255	; 0xff
 800249a:	2900      	cmp	r1, #0
 800249c:	f040 80d6 	bne.w	800264c <dir_register+0x1d8>
 80024a0:	07d1      	lsls	r1, r2, #31
 80024a2:	d523      	bpl.n	80024ec <dir_register+0x78>
 80024a4:	72f3      	strb	r3, [r6, #11]
 80024a6:	2701      	movs	r7, #1
 80024a8:	61e3      	str	r3, [r4, #28]
 80024aa:	46a9      	mov	r9, r5
 80024ac:	4630      	mov	r0, r6
 80024ae:	4649      	mov	r1, r9
 80024b0:	4642      	mov	r2, r8
 80024b2:	463b      	mov	r3, r7
 80024b4:	f7ff ff8c 	bl	80023d0 <gen_numname>
 80024b8:	4620      	mov	r0, r4
 80024ba:	2100      	movs	r1, #0
 80024bc:	f7ff fb92 	bl	8001be4 <dir_sdi>
 80024c0:	4605      	mov	r5, r0
 80024c2:	2800      	cmp	r0, #0
 80024c4:	f040 80c4 	bne.w	8002650 <dir_register+0x1dc>
 80024c8:	4620      	mov	r0, r4
 80024ca:	f7ff fd1f 	bl	8001f0c <dir_find.part.4>
 80024ce:	4605      	mov	r5, r0
 80024d0:	2800      	cmp	r0, #0
 80024d2:	f040 80bd 	bne.w	8002650 <dir_register+0x1dc>
 80024d6:	3701      	adds	r7, #1
 80024d8:	b2bf      	uxth	r7, r7
 80024da:	2f64      	cmp	r7, #100	; 0x64
 80024dc:	d1e6      	bne.n	80024ac <dir_register+0x38>
 80024de:	2507      	movs	r5, #7
 80024e0:	e0c2      	b.n	8002668 <dir_register+0x1f4>
 80024e2:	f89d 000f 	ldrb.w	r0, [sp, #15]
 80024e6:	72f0      	strb	r0, [r6, #11]
 80024e8:	f8c4 801c 	str.w	r8, [r4, #28]
 80024ec:	f89d 500f 	ldrb.w	r5, [sp, #15]
 80024f0:	07aa      	lsls	r2, r5, #30
 80024f2:	d407      	bmi.n	8002504 <dir_register+0x90>
 80024f4:	f04f 0801 	mov.w	r8, #1
 80024f8:	e011      	b.n	800251e <dir_register+0xaa>
 80024fa:	f10c 0501 	add.w	r5, ip, #1
 80024fe:	fa1f fc85 	uxth.w	ip, r5
 8002502:	e001      	b.n	8002508 <dir_register+0x94>
 8002504:	f04f 0c00 	mov.w	ip, #0
 8002508:	f838 201c 	ldrh.w	r2, [r8, ip, lsl #1]
 800250c:	2a00      	cmp	r2, #0
 800250e:	d1f4      	bne.n	80024fa <dir_register+0x86>
 8002510:	f10c 0119 	add.w	r1, ip, #25
 8002514:	230d      	movs	r3, #13
 8002516:	fb91 f0f3 	sdiv	r0, r1, r3
 800251a:	fa1f f880 	uxth.w	r8, r0
 800251e:	4620      	mov	r0, r4
 8002520:	2100      	movs	r1, #0
 8002522:	f7ff fb5f 	bl	8001be4 <dir_sdi>
 8002526:	4605      	mov	r5, r0
 8002528:	2800      	cmp	r0, #0
 800252a:	f040 809d 	bne.w	8002668 <dir_register+0x1f4>
 800252e:	4607      	mov	r7, r0
 8002530:	4606      	mov	r6, r0
 8002532:	6820      	ldr	r0, [r4, #0]
 8002534:	6921      	ldr	r1, [r4, #16]
 8002536:	f7ff f850 	bl	80015da <move_window>
 800253a:	4605      	mov	r5, r0
 800253c:	2800      	cmp	r0, #0
 800253e:	f040 8093 	bne.w	8002668 <dir_register+0x1f4>
 8002542:	6962      	ldr	r2, [r4, #20]
 8002544:	7811      	ldrb	r1, [r2, #0]
 8002546:	29e5      	cmp	r1, #229	; 0xe5
 8002548:	d000      	beq.n	800254c <dir_register+0xd8>
 800254a:	b931      	cbnz	r1, 800255a <dir_register+0xe6>
 800254c:	b906      	cbnz	r6, 8002550 <dir_register+0xdc>
 800254e:	88e7      	ldrh	r7, [r4, #6]
 8002550:	3601      	adds	r6, #1
 8002552:	b2b6      	uxth	r6, r6
 8002554:	4546      	cmp	r6, r8
 8002556:	d101      	bne.n	800255c <dir_register+0xe8>
 8002558:	e07d      	b.n	8002656 <dir_register+0x1e2>
 800255a:	4606      	mov	r6, r0
 800255c:	4620      	mov	r0, r4
 800255e:	2101      	movs	r1, #1
 8002560:	f7ff fc54 	bl	8001e0c <dir_next>
 8002564:	4605      	mov	r5, r0
 8002566:	2800      	cmp	r0, #0
 8002568:	d0e3      	beq.n	8002532 <dir_register+0xbe>
 800256a:	e07d      	b.n	8002668 <dir_register+0x1f4>
 800256c:	4620      	mov	r0, r4
 800256e:	4639      	mov	r1, r7
 8002570:	f7ff fb38 	bl	8001be4 <dir_sdi>
 8002574:	4605      	mov	r5, r0
 8002576:	2800      	cmp	r0, #0
 8002578:	d176      	bne.n	8002668 <dir_register+0x1f4>
 800257a:	69a0      	ldr	r0, [r4, #24]
 800257c:	f7fe ff96 	bl	80014ac <sum_sfn>
 8002580:	1e75      	subs	r5, r6, #1
 8002582:	f64f 7aff 	movw	sl, #65535	; 0xffff
 8002586:	4e3a      	ldr	r6, [pc, #232]	; (8002670 <dir_register+0x1fc>)
 8002588:	4607      	mov	r7, r0
 800258a:	fa1f f985 	uxth.w	r9, r5
 800258e:	46d0      	mov	r8, sl
 8002590:	6820      	ldr	r0, [r4, #0]
 8002592:	6921      	ldr	r1, [r4, #16]
 8002594:	f7ff f821 	bl	80015da <move_window>
 8002598:	4603      	mov	r3, r0
 800259a:	4605      	mov	r5, r0
 800259c:	2800      	cmp	r0, #0
 800259e:	d163      	bne.n	8002668 <dir_register+0x1f4>
 80025a0:	fa5f f589 	uxtb.w	r5, r9
 80025a4:	f105 3bff 	add.w	fp, r5, #4294967295
 80025a8:	210d      	movs	r1, #13
 80025aa:	fb01 f10b 	mul.w	r1, r1, fp
 80025ae:	6962      	ldr	r2, [r4, #20]
 80025b0:	200f      	movs	r0, #15
 80025b2:	f8d4 e01c 	ldr.w	lr, [r4, #28]
 80025b6:	72d0      	strb	r0, [r2, #11]
 80025b8:	7357      	strb	r7, [r2, #13]
 80025ba:	7313      	strb	r3, [r2, #12]
 80025bc:	7693      	strb	r3, [r2, #26]
 80025be:	76d3      	strb	r3, [r2, #27]
 80025c0:	4618      	mov	r0, r3
 80025c2:	4553      	cmp	r3, sl
 80025c4:	bf18      	it	ne
 80025c6:	f83e 3011 	ldrhne.w	r3, [lr, r1, lsl #1]
 80025ca:	f810 c006 	ldrb.w	ip, [r0, r6]
 80025ce:	f100 0001 	add.w	r0, r0, #1
 80025d2:	f802 300c 	strb.w	r3, [r2, ip]
 80025d6:	bf18      	it	ne
 80025d8:	3101      	addne	r1, #1
 80025da:	ea4f 2b13 	mov.w	fp, r3, lsr #8
 80025de:	4494      	add	ip, r2
 80025e0:	2b00      	cmp	r3, #0
 80025e2:	bf08      	it	eq
 80025e4:	4653      	moveq	r3, sl
 80025e6:	280d      	cmp	r0, #13
 80025e8:	f88c b001 	strb.w	fp, [ip, #1]
 80025ec:	d1e9      	bne.n	80025c2 <dir_register+0x14e>
 80025ee:	4543      	cmp	r3, r8
 80025f0:	d002      	beq.n	80025f8 <dir_register+0x184>
 80025f2:	f83e 3011 	ldrh.w	r3, [lr, r1, lsl #1]
 80025f6:	b913      	cbnz	r3, 80025fe <dir_register+0x18a>
 80025f8:	f049 0540 	orr.w	r5, r9, #64	; 0x40
 80025fc:	b2ed      	uxtb	r5, r5
 80025fe:	7015      	strb	r5, [r2, #0]
 8002600:	6821      	ldr	r1, [r4, #0]
 8002602:	2201      	movs	r2, #1
 8002604:	710a      	strb	r2, [r1, #4]
 8002606:	4620      	mov	r0, r4
 8002608:	2100      	movs	r1, #0
 800260a:	f7ff fbff 	bl	8001e0c <dir_next>
 800260e:	4605      	mov	r5, r0
 8002610:	bb50      	cbnz	r0, 8002668 <dir_register+0x1f4>
 8002612:	f109 30ff 	add.w	r0, r9, #4294967295
 8002616:	fa1f f980 	uxth.w	r9, r0
 800261a:	f1b9 0f00 	cmp.w	r9, #0
 800261e:	d1b7      	bne.n	8002590 <dir_register+0x11c>
 8002620:	e01b      	b.n	800265a <dir_register+0x1e6>
 8002622:	6966      	ldr	r6, [r4, #20]
 8002624:	462b      	mov	r3, r5
 8002626:	4629      	mov	r1, r5
 8002628:	54f1      	strb	r1, [r6, r3]
 800262a:	3301      	adds	r3, #1
 800262c:	2b20      	cmp	r3, #32
 800262e:	d1fb      	bne.n	8002628 <dir_register+0x1b4>
 8002630:	4630      	mov	r0, r6
 8002632:	69a1      	ldr	r1, [r4, #24]
 8002634:	220b      	movs	r2, #11
 8002636:	f7fe ff30 	bl	800149a <mem_cpy>
 800263a:	69a2      	ldr	r2, [r4, #24]
 800263c:	7ad0      	ldrb	r0, [r2, #11]
 800263e:	2201      	movs	r2, #1
 8002640:	f000 0118 	and.w	r1, r0, #24
 8002644:	7331      	strb	r1, [r6, #12]
 8002646:	6823      	ldr	r3, [r4, #0]
 8002648:	711a      	strb	r2, [r3, #4]
 800264a:	e00d      	b.n	8002668 <dir_register+0x1f4>
 800264c:	2506      	movs	r5, #6
 800264e:	e00b      	b.n	8002668 <dir_register+0x1f4>
 8002650:	2d04      	cmp	r5, #4
 8002652:	d109      	bne.n	8002668 <dir_register+0x1f4>
 8002654:	e745      	b.n	80024e2 <dir_register+0x6e>
 8002656:	2e01      	cmp	r6, #1
 8002658:	d188      	bne.n	800256c <dir_register+0xf8>
 800265a:	6820      	ldr	r0, [r4, #0]
 800265c:	6921      	ldr	r1, [r4, #16]
 800265e:	f7fe ffbc 	bl	80015da <move_window>
 8002662:	4605      	mov	r5, r0
 8002664:	2800      	cmp	r0, #0
 8002666:	d0dc      	beq.n	8002622 <dir_register+0x1ae>
 8002668:	4628      	mov	r0, r5
 800266a:	b005      	add	sp, #20
 800266c:	e8bd 8ff0 	ldmia.w	sp!, {r4, r5, r6, r7, r8, r9, sl, fp, pc}
 8002670:	08011782 	stmdaeq	r1, {r1, r7, r8, r9, sl, ip}

08002674 <f_mount>:
 8002674:	b948      	cbnz	r0, 800268a <f_mount+0x16>
 8002676:	4a06      	ldr	r2, [pc, #24]	; (8002690 <f_mount+0x1c>)
 8002678:	6813      	ldr	r3, [r2, #0]
 800267a:	b103      	cbz	r3, 800267e <f_mount+0xa>
 800267c:	7018      	strb	r0, [r3, #0]
 800267e:	b109      	cbz	r1, 8002684 <f_mount+0x10>
 8002680:	2000      	movs	r0, #0
 8002682:	7008      	strb	r0, [r1, #0]
 8002684:	6011      	str	r1, [r2, #0]
 8002686:	2000      	movs	r0, #0
 8002688:	4770      	bx	lr
 800268a:	200b      	movs	r0, #11
 800268c:	4770      	bx	lr
 800268e:	bf00      	nop
 8002690:	20000990 	mulcs	r0, r0, r9

08002694 <f_open>:
 8002694:	e92d 41f0 	stmdb	sp!, {r4, r5, r6, r7, r8, lr}
 8002698:	2300      	movs	r3, #0
 800269a:	f5ad 7d0e 	sub.w	sp, sp, #568	; 0x238
 800269e:	9101      	str	r1, [sp, #4]
 80026a0:	6003      	str	r3, [r0, #0]
 80026a2:	a905      	add	r1, sp, #20
 80026a4:	4605      	mov	r5, r0
 80026a6:	4617      	mov	r7, r2
 80026a8:	f002 061f 	and.w	r6, r2, #31
 80026ac:	a801      	add	r0, sp, #4
 80026ae:	f002 021e 	and.w	r2, r2, #30
 80026b2:	f7ff f889 	bl	80017c8 <chk_mounted>
 80026b6:	a902      	add	r1, sp, #8
 80026b8:	aa0e      	add	r2, sp, #56	; 0x38
 80026ba:	910b      	str	r1, [sp, #44]	; 0x2c
 80026bc:	920c      	str	r2, [sp, #48]	; 0x30
 80026be:	b918      	cbnz	r0, 80026c8 <f_open+0x34>
 80026c0:	a805      	add	r0, sp, #20
 80026c2:	9901      	ldr	r1, [sp, #4]
 80026c4:	f7ff fcba 	bl	800203c <follow_path>
 80026c8:	9c0a      	ldr	r4, [sp, #40]	; 0x28
 80026ca:	b918      	cbnz	r0, 80026d4 <f_open+0x40>
 80026cc:	2c00      	cmp	r4, #0
 80026ce:	bf0c      	ite	eq
 80026d0:	2006      	moveq	r0, #6
 80026d2:	2000      	movne	r0, #0
 80026d4:	f017 0f1c 	tst.w	r7, #28
 80026d8:	d045      	beq.n	8002766 <f_open+0xd2>
 80026da:	b148      	cbz	r0, 80026f0 <f_open+0x5c>
 80026dc:	2804      	cmp	r0, #4
 80026de:	d102      	bne.n	80026e6 <f_open+0x52>
 80026e0:	a805      	add	r0, sp, #20
 80026e2:	f7ff fec7 	bl	8002474 <dir_register>
 80026e6:	f046 0608 	orr.w	r6, r6, #8
 80026ea:	9c0a      	ldr	r4, [sp, #40]	; 0x28
 80026ec:	b138      	cbz	r0, 80026fe <f_open+0x6a>
 80026ee:	e073      	b.n	80027d8 <f_open+0x144>
 80026f0:	f894 c00b 	ldrb.w	ip, [r4, #11]
 80026f4:	f01c 0f11 	tst.w	ip, #17
 80026f8:	d16d      	bne.n	80027d6 <f_open+0x142>
 80026fa:	077b      	lsls	r3, r7, #29
 80026fc:	d467      	bmi.n	80027ce <f_open+0x13a>
 80026fe:	0730      	lsls	r0, r6, #28
 8002700:	d53a      	bpl.n	8002778 <f_open+0xe4>
 8002702:	f7fe fea9 	bl	8001458 <get_fattime>
 8002706:	0c03      	lsrs	r3, r0, #16
 8002708:	0e01      	lsrs	r1, r0, #24
 800270a:	f894 c015 	ldrb.w	ip, [r4, #21]
 800270e:	7d22      	ldrb	r2, [r4, #20]
 8002710:	7423      	strb	r3, [r4, #16]
 8002712:	7461      	strb	r1, [r4, #17]
 8002714:	7ee3      	ldrb	r3, [r4, #27]
 8002716:	7ea1      	ldrb	r1, [r4, #26]
 8002718:	f3c0 2707 	ubfx	r7, r0, #8, #8
 800271c:	73a0      	strb	r0, [r4, #14]
 800271e:	2000      	movs	r0, #0
 8002720:	73e7      	strb	r7, [r4, #15]
 8002722:	72e0      	strb	r0, [r4, #11]
 8002724:	ea42 270c 	orr.w	r7, r2, ip, lsl #8
 8002728:	7720      	strb	r0, [r4, #28]
 800272a:	7760      	strb	r0, [r4, #29]
 800272c:	77a0      	strb	r0, [r4, #30]
 800272e:	77e0      	strb	r0, [r4, #31]
 8002730:	76a0      	strb	r0, [r4, #26]
 8002732:	76e0      	strb	r0, [r4, #27]
 8002734:	7520      	strb	r0, [r4, #20]
 8002736:	7560      	strb	r0, [r4, #21]
 8002738:	ea41 2c03 	orr.w	ip, r1, r3, lsl #8
 800273c:	9805      	ldr	r0, [sp, #20]
 800273e:	2201      	movs	r2, #1
 8002740:	ea5c 4707 	orrs.w	r7, ip, r7, lsl #16
 8002744:	7102      	strb	r2, [r0, #4]
 8002746:	d017      	beq.n	8002778 <f_open+0xe4>
 8002748:	4639      	mov	r1, r7
 800274a:	f8d0 8030 	ldr.w	r8, [r0, #48]	; 0x30
 800274e:	f7ff fe13 	bl	8002378 <remove_chain>
 8002752:	2800      	cmp	r0, #0
 8002754:	d140      	bne.n	80027d8 <f_open+0x144>
 8002756:	9805      	ldr	r0, [sp, #20]
 8002758:	3f01      	subs	r7, #1
 800275a:	60c7      	str	r7, [r0, #12]
 800275c:	4641      	mov	r1, r8
 800275e:	f7fe ff3c 	bl	80015da <move_window>
 8002762:	b148      	cbz	r0, 8002778 <f_open+0xe4>
 8002764:	e038      	b.n	80027d8 <f_open+0x144>
 8002766:	2800      	cmp	r0, #0
 8002768:	d136      	bne.n	80027d8 <f_open+0x144>
 800276a:	7ae0      	ldrb	r0, [r4, #11]
 800276c:	06c1      	lsls	r1, r0, #27
 800276e:	d430      	bmi.n	80027d2 <f_open+0x13e>
 8002770:	07ba      	lsls	r2, r7, #30
 8002772:	d501      	bpl.n	8002778 <f_open+0xe4>
 8002774:	07c3      	lsls	r3, r0, #31
 8002776:	d42e      	bmi.n	80027d6 <f_open+0x142>
 8002778:	9b05      	ldr	r3, [sp, #20]
 800277a:	0730      	lsls	r0, r6, #28
 800277c:	6b18      	ldr	r0, [r3, #48]	; 0x30
 800277e:	bf48      	it	mi
 8002780:	f046 0620 	orrmi.w	r6, r6, #32
 8002784:	71ae      	strb	r6, [r5, #6]
 8002786:	61e8      	str	r0, [r5, #28]
 8002788:	622c      	str	r4, [r5, #32]
 800278a:	f894 e015 	ldrb.w	lr, [r4, #21]
 800278e:	7d21      	ldrb	r1, [r4, #20]
 8002790:	7ee0      	ldrb	r0, [r4, #27]
 8002792:	7ea2      	ldrb	r2, [r4, #26]
 8002794:	ea41 2c0e 	orr.w	ip, r1, lr, lsl #8
 8002798:	ea42 2100 	orr.w	r1, r2, r0, lsl #8
 800279c:	ea41 400c 	orr.w	r0, r1, ip, lsl #16
 80027a0:	6128      	str	r0, [r5, #16]
 80027a2:	f894 c01e 	ldrb.w	ip, [r4, #30]
 80027a6:	f894 e01f 	ldrb.w	lr, [r4, #31]
 80027aa:	7f21      	ldrb	r1, [r4, #28]
 80027ac:	ea4f 420c 	mov.w	r2, ip, lsl #16
 80027b0:	ea42 600e 	orr.w	r0, r2, lr, lsl #24
 80027b4:	7f62      	ldrb	r2, [r4, #29]
 80027b6:	ea40 0e01 	orr.w	lr, r0, r1
 80027ba:	ea4e 2002 	orr.w	r0, lr, r2, lsl #8
 80027be:	602b      	str	r3, [r5, #0]
 80027c0:	88db      	ldrh	r3, [r3, #6]
 80027c2:	60e8      	str	r0, [r5, #12]
 80027c4:	2000      	movs	r0, #0
 80027c6:	60a8      	str	r0, [r5, #8]
 80027c8:	61a8      	str	r0, [r5, #24]
 80027ca:	80ab      	strh	r3, [r5, #4]
 80027cc:	e004      	b.n	80027d8 <f_open+0x144>
 80027ce:	2008      	movs	r0, #8
 80027d0:	e002      	b.n	80027d8 <f_open+0x144>
 80027d2:	2004      	movs	r0, #4
 80027d4:	e000      	b.n	80027d8 <f_open+0x144>
 80027d6:	2007      	movs	r0, #7
 80027d8:	f50d 7d0e 	add.w	sp, sp, #568	; 0x238
 80027dc:	e8bd 81f0 	ldmia.w	sp!, {r4, r5, r6, r7, r8, pc}

080027e0 <f_write>:
 80027e0:	e92d 4ff7 	stmdb	sp!, {r0, r1, r2, r4, r5, r6, r7, r8, r9, sl, fp, lr}
 80027e4:	4604      	mov	r4, r0
 80027e6:	4699      	mov	r9, r3
 80027e8:	2300      	movs	r3, #0
 80027ea:	4688      	mov	r8, r1
 80027ec:	f8c9 3000 	str.w	r3, [r9]
 80027f0:	6800      	ldr	r0, [r0, #0]
 80027f2:	88a1      	ldrh	r1, [r4, #4]
 80027f4:	4617      	mov	r7, r2
 80027f6:	f7fe ff8c 	bl	8001712 <validate>
 80027fa:	4605      	mov	r5, r0
 80027fc:	2800      	cmp	r0, #0
 80027fe:	f040 80c5 	bne.w	800298c <f_write+0x1ac>
 8002802:	79a1      	ldrb	r1, [r4, #6]
 8002804:	0608      	lsls	r0, r1, #24
 8002806:	d451      	bmi.n	80028ac <f_write+0xcc>
 8002808:	0789      	lsls	r1, r1, #30
 800280a:	f140 80be 	bpl.w	800298a <f_write+0x1aa>
 800280e:	68e0      	ldr	r0, [r4, #12]
 8002810:	f104 0a24 	add.w	sl, r4, #36	; 0x24
 8002814:	42c7      	cmn	r7, r0
 8002816:	bf28      	it	cs
 8002818:	2700      	movcs	r7, #0
 800281a:	e0ac      	b.n	8002976 <f_write+0x196>
 800281c:	68a3      	ldr	r3, [r4, #8]
 800281e:	05da      	lsls	r2, r3, #23
 8002820:	f040 808b 	bne.w	800293a <f_write+0x15a>
 8002824:	6820      	ldr	r0, [r4, #0]
 8002826:	f890 b002 	ldrb.w	fp, [r0, #2]
 800282a:	f10b 32ff 	add.w	r2, fp, #4294967295
 800282e:	ea02 2153 	and.w	r1, r2, r3, lsr #9
 8002832:	f011 0bff 	ands.w	fp, r1, #255	; 0xff
 8002836:	d11b      	bne.n	8002870 <f_write+0x90>
 8002838:	b933      	cbnz	r3, 8002848 <f_write+0x68>
 800283a:	6921      	ldr	r1, [r4, #16]
 800283c:	b979      	cbnz	r1, 800285e <f_write+0x7e>
 800283e:	f7ff fa97 	bl	8001d70 <create_chain>
 8002842:	4601      	mov	r1, r0
 8002844:	6120      	str	r0, [r4, #16]
 8002846:	e003      	b.n	8002850 <f_write+0x70>
 8002848:	6961      	ldr	r1, [r4, #20]
 800284a:	f7ff fa91 	bl	8001d70 <create_chain>
 800284e:	4601      	mov	r1, r0
 8002850:	b929      	cbnz	r1, 800285e <f_write+0x7e>
 8002852:	68a3      	ldr	r3, [r4, #8]
 8002854:	68e2      	ldr	r2, [r4, #12]
 8002856:	4293      	cmp	r3, r2
 8002858:	f200 8091 	bhi.w	800297e <f_write+0x19e>
 800285c:	e090      	b.n	8002980 <f_write+0x1a0>
 800285e:	2901      	cmp	r1, #1
 8002860:	f894 c006 	ldrb.w	ip, [r4, #6]
 8002864:	d100      	bne.n	8002868 <f_write+0x88>
 8002866:	e01e      	b.n	80028a6 <f_write+0xc6>
 8002868:	1c4a      	adds	r2, r1, #1
 800286a:	d100      	bne.n	800286e <f_write+0x8e>
 800286c:	e05f      	b.n	800292e <f_write+0x14e>
 800286e:	6161      	str	r1, [r4, #20]
 8002870:	79a0      	ldrb	r0, [r4, #6]
 8002872:	0640      	lsls	r0, r0, #25
 8002874:	d50d      	bpl.n	8002892 <f_write+0xb2>
 8002876:	6823      	ldr	r3, [r4, #0]
 8002878:	4651      	mov	r1, sl
 800287a:	7858      	ldrb	r0, [r3, #1]
 800287c:	69a2      	ldr	r2, [r4, #24]
 800287e:	2301      	movs	r3, #1
 8002880:	f000 ff68 	bl	8003754 <disk_write>
 8002884:	f894 c006 	ldrb.w	ip, [r4, #6]
 8002888:	b100      	cbz	r0, 800288c <f_write+0xac>
 800288a:	e050      	b.n	800292e <f_write+0x14e>
 800288c:	f02c 0240 	bic.w	r2, ip, #64	; 0x40
 8002890:	71a2      	strb	r2, [r4, #6]
 8002892:	6823      	ldr	r3, [r4, #0]
 8002894:	6961      	ldr	r1, [r4, #20]
 8002896:	4618      	mov	r0, r3
 8002898:	9301      	str	r3, [sp, #4]
 800289a:	f7ff f92d 	bl	8001af8 <clust2sect>
 800289e:	9b01      	ldr	r3, [sp, #4]
 80028a0:	b930      	cbnz	r0, 80028b0 <f_write+0xd0>
 80028a2:	f894 c006 	ldrb.w	ip, [r4, #6]
 80028a6:	f06c 017f 	orn	r1, ip, #127	; 0x7f
 80028aa:	71a1      	strb	r1, [r4, #6]
 80028ac:	2502      	movs	r5, #2
 80028ae:	e06d      	b.n	800298c <f_write+0x1ac>
 80028b0:	ea5f 2c57 	movs.w	ip, r7, lsr #9
 80028b4:	eb00 060b 	add.w	r6, r0, fp
 80028b8:	d029      	beq.n	800290e <f_write+0x12e>
 80028ba:	7898      	ldrb	r0, [r3, #2]
 80028bc:	eb0c 010b 	add.w	r1, ip, fp
 80028c0:	4281      	cmp	r1, r0
 80028c2:	bf88      	it	hi
 80028c4:	ebcb 0c00 	rsbhi	ip, fp, r0
 80028c8:	4641      	mov	r1, r8
 80028ca:	7858      	ldrb	r0, [r3, #1]
 80028cc:	4632      	mov	r2, r6
 80028ce:	fa5f f38c 	uxtb.w	r3, ip
 80028d2:	f8cd c004 	str.w	ip, [sp, #4]
 80028d6:	f000 ff3d 	bl	8003754 <disk_write>
 80028da:	f8dd c004 	ldr.w	ip, [sp, #4]
 80028de:	b100      	cbz	r0, 80028e2 <f_write+0x102>
 80028e0:	e023      	b.n	800292a <f_write+0x14a>
 80028e2:	69a3      	ldr	r3, [r4, #24]
 80028e4:	1b9e      	subs	r6, r3, r6
 80028e6:	4566      	cmp	r6, ip
 80028e8:	d20e      	bcs.n	8002908 <f_write+0x128>
 80028ea:	4650      	mov	r0, sl
 80028ec:	f44f 7200 	mov.w	r2, #512	; 0x200
 80028f0:	eb08 2146 	add.w	r1, r8, r6, lsl #9
 80028f4:	f8cd c004 	str.w	ip, [sp, #4]
 80028f8:	f7fe fdcf 	bl	800149a <mem_cpy>
 80028fc:	79a2      	ldrb	r2, [r4, #6]
 80028fe:	f8dd c004 	ldr.w	ip, [sp, #4]
 8002902:	f022 0040 	bic.w	r0, r2, #64	; 0x40
 8002906:	71a0      	strb	r0, [r4, #6]
 8002908:	ea4f 264c 	mov.w	r6, ip, lsl #9
 800290c:	e029      	b.n	8002962 <f_write+0x182>
 800290e:	69a1      	ldr	r1, [r4, #24]
 8002910:	42b1      	cmp	r1, r6
 8002912:	d011      	beq.n	8002938 <f_write+0x158>
 8002914:	68a0      	ldr	r0, [r4, #8]
 8002916:	68e2      	ldr	r2, [r4, #12]
 8002918:	4290      	cmp	r0, r2
 800291a:	d20d      	bcs.n	8002938 <f_write+0x158>
 800291c:	7858      	ldrb	r0, [r3, #1]
 800291e:	4651      	mov	r1, sl
 8002920:	4632      	mov	r2, r6
 8002922:	2301      	movs	r3, #1
 8002924:	f000 fec6 	bl	80036b4 <disk_read>
 8002928:	b130      	cbz	r0, 8002938 <f_write+0x158>
 800292a:	f894 c006 	ldrb.w	ip, [r4, #6]
 800292e:	f06c 057f 	orn	r5, ip, #127	; 0x7f
 8002932:	71a5      	strb	r5, [r4, #6]
 8002934:	2501      	movs	r5, #1
 8002936:	e029      	b.n	800298c <f_write+0x1ac>
 8002938:	61a6      	str	r6, [r4, #24]
 800293a:	68a6      	ldr	r6, [r4, #8]
 800293c:	05f3      	lsls	r3, r6, #23
 800293e:	0dd9      	lsrs	r1, r3, #23
 8002940:	f5c1 7600 	rsb	r6, r1, #512	; 0x200
 8002944:	eb04 0e01 	add.w	lr, r4, r1
 8002948:	42b7      	cmp	r7, r6
 800294a:	bf38      	it	cc
 800294c:	463e      	movcc	r6, r7
 800294e:	f10e 0024 	add.w	r0, lr, #36	; 0x24
 8002952:	4632      	mov	r2, r6
 8002954:	4641      	mov	r1, r8
 8002956:	f7fe fda0 	bl	800149a <mem_cpy>
 800295a:	79a0      	ldrb	r0, [r4, #6]
 800295c:	f040 0240 	orr.w	r2, r0, #64	; 0x40
 8002960:	71a2      	strb	r2, [r4, #6]
 8002962:	68a1      	ldr	r1, [r4, #8]
 8002964:	f8d9 2000 	ldr.w	r2, [r9]
 8002968:	198b      	adds	r3, r1, r6
 800296a:	1990      	adds	r0, r2, r6
 800296c:	60a3      	str	r3, [r4, #8]
 800296e:	44b0      	add	r8, r6
 8002970:	f8c9 0000 	str.w	r0, [r9]
 8002974:	1bbf      	subs	r7, r7, r6
 8002976:	2f00      	cmp	r7, #0
 8002978:	f47f af50 	bne.w	800281c <f_write+0x3c>
 800297c:	e769      	b.n	8002852 <f_write+0x72>
 800297e:	60e3      	str	r3, [r4, #12]
 8002980:	79a0      	ldrb	r0, [r4, #6]
 8002982:	f040 0120 	orr.w	r1, r0, #32
 8002986:	71a1      	strb	r1, [r4, #6]
 8002988:	e000      	b.n	800298c <f_write+0x1ac>
 800298a:	2507      	movs	r5, #7
 800298c:	4628      	mov	r0, r5
 800298e:	e8bd 8ffe 	ldmia.w	sp!, {r1, r2, r3, r4, r5, r6, r7, r8, r9, sl, fp, pc}

08002992 <f_sync>:
 8002992:	b538      	push	{r3, r4, r5, lr}
 8002994:	4604      	mov	r4, r0
 8002996:	88a1      	ldrh	r1, [r4, #4]
 8002998:	6800      	ldr	r0, [r0, #0]
 800299a:	f7fe feba 	bl	8001712 <validate>
 800299e:	2800      	cmp	r0, #0
 80029a0:	d148      	bne.n	8002a34 <f_sync+0xa2>
 80029a2:	79a3      	ldrb	r3, [r4, #6]
 80029a4:	069a      	lsls	r2, r3, #26
 80029a6:	d545      	bpl.n	8002a34 <f_sync+0xa2>
 80029a8:	065b      	lsls	r3, r3, #25
 80029aa:	d50d      	bpl.n	80029c8 <f_sync+0x36>
 80029ac:	4621      	mov	r1, r4
 80029ae:	f851 0b24 	ldr.w	r0, [r1], #36
 80029b2:	69a2      	ldr	r2, [r4, #24]
 80029b4:	7840      	ldrb	r0, [r0, #1]
 80029b6:	2301      	movs	r3, #1
 80029b8:	f000 fecc 	bl	8003754 <disk_write>
 80029bc:	2800      	cmp	r0, #0
 80029be:	d138      	bne.n	8002a32 <f_sync+0xa0>
 80029c0:	79a1      	ldrb	r1, [r4, #6]
 80029c2:	f021 0240 	bic.w	r2, r1, #64	; 0x40
 80029c6:	71a2      	strb	r2, [r4, #6]
 80029c8:	6820      	ldr	r0, [r4, #0]
 80029ca:	69e1      	ldr	r1, [r4, #28]
 80029cc:	f7fe fe05 	bl	80015da <move_window>
 80029d0:	2800      	cmp	r0, #0
 80029d2:	d12f      	bne.n	8002a34 <f_sync+0xa2>
 80029d4:	6a25      	ldr	r5, [r4, #32]
 80029d6:	f895 c00b 	ldrb.w	ip, [r5, #11]
 80029da:	f04c 0320 	orr.w	r3, ip, #32
 80029de:	72eb      	strb	r3, [r5, #11]
 80029e0:	68e0      	ldr	r0, [r4, #12]
 80029e2:	7728      	strb	r0, [r5, #28]
 80029e4:	89a1      	ldrh	r1, [r4, #12]
 80029e6:	0a0a      	lsrs	r2, r1, #8
 80029e8:	776a      	strb	r2, [r5, #29]
 80029ea:	89e3      	ldrh	r3, [r4, #14]
 80029ec:	77ab      	strb	r3, [r5, #30]
 80029ee:	7be0      	ldrb	r0, [r4, #15]
 80029f0:	77e8      	strb	r0, [r5, #31]
 80029f2:	6921      	ldr	r1, [r4, #16]
 80029f4:	76a9      	strb	r1, [r5, #26]
 80029f6:	8a22      	ldrh	r2, [r4, #16]
 80029f8:	0a13      	lsrs	r3, r2, #8
 80029fa:	76eb      	strb	r3, [r5, #27]
 80029fc:	8a60      	ldrh	r0, [r4, #18]
 80029fe:	7528      	strb	r0, [r5, #20]
 8002a00:	8a61      	ldrh	r1, [r4, #18]
 8002a02:	0a0a      	lsrs	r2, r1, #8
 8002a04:	756a      	strb	r2, [r5, #21]
 8002a06:	f7fe fd27 	bl	8001458 <get_fattime>
 8002a0a:	75a8      	strb	r0, [r5, #22]
 8002a0c:	f3c0 2307 	ubfx	r3, r0, #8, #8
 8002a10:	0c01      	lsrs	r1, r0, #16
 8002a12:	0e00      	lsrs	r0, r0, #24
 8002a14:	75eb      	strb	r3, [r5, #23]
 8002a16:	7668      	strb	r0, [r5, #25]
 8002a18:	7629      	strb	r1, [r5, #24]
 8002a1a:	79a2      	ldrb	r2, [r4, #6]
 8002a1c:	6821      	ldr	r1, [r4, #0]
 8002a1e:	f022 0320 	bic.w	r3, r2, #32
 8002a22:	2001      	movs	r0, #1
 8002a24:	71a3      	strb	r3, [r4, #6]
 8002a26:	7108      	strb	r0, [r1, #4]
 8002a28:	6820      	ldr	r0, [r4, #0]
 8002a2a:	e8bd 4038 	ldmia.w	sp!, {r3, r4, r5, lr}
 8002a2e:	f7fe be10 	b.w	8001652 <sync>
 8002a32:	2001      	movs	r0, #1
 8002a34:	bd38      	pop	{r3, r4, r5, pc}

08002a36 <f_close>:
 8002a36:	b510      	push	{r4, lr}
 8002a38:	4604      	mov	r4, r0
 8002a3a:	f7ff ffaa 	bl	8002992 <f_sync>
 8002a3e:	b900      	cbnz	r0, 8002a42 <f_close+0xc>
 8002a40:	6020      	str	r0, [r4, #0]
 8002a42:	bd10      	pop	{r4, pc}

08002a44 <f_chdir>:
 8002a44:	b510      	push	{r4, lr}
 8002a46:	f5ad 7d0e 	sub.w	sp, sp, #568	; 0x238
 8002a4a:	9001      	str	r0, [sp, #4]
 8002a4c:	a905      	add	r1, sp, #20
 8002a4e:	a801      	add	r0, sp, #4
 8002a50:	2200      	movs	r2, #0
 8002a52:	f7fe feb9 	bl	80017c8 <chk_mounted>
 8002a56:	bb18      	cbnz	r0, 8002aa0 <f_chdir+0x5c>
 8002a58:	a80e      	add	r0, sp, #56	; 0x38
 8002a5a:	ab02      	add	r3, sp, #8
 8002a5c:	900c      	str	r0, [sp, #48]	; 0x30
 8002a5e:	9901      	ldr	r1, [sp, #4]
 8002a60:	a805      	add	r0, sp, #20
 8002a62:	930b      	str	r3, [sp, #44]	; 0x2c
 8002a64:	f7ff faea 	bl	800203c <follow_path>
 8002a68:	b9a8      	cbnz	r0, 8002a96 <f_chdir+0x52>
 8002a6a:	9b0a      	ldr	r3, [sp, #40]	; 0x28
 8002a6c:	b913      	cbnz	r3, 8002a74 <f_chdir+0x30>
 8002a6e:	9a05      	ldr	r2, [sp, #20]
 8002a70:	9907      	ldr	r1, [sp, #28]
 8002a72:	e00e      	b.n	8002a92 <f_chdir+0x4e>
 8002a74:	7ada      	ldrb	r2, [r3, #11]
 8002a76:	06d1      	lsls	r1, r2, #27
 8002a78:	d511      	bpl.n	8002a9e <f_chdir+0x5a>
 8002a7a:	7d5c      	ldrb	r4, [r3, #21]
 8002a7c:	7d19      	ldrb	r1, [r3, #20]
 8002a7e:	f893 e01a 	ldrb.w	lr, [r3, #26]
 8002a82:	ea41 2c04 	orr.w	ip, r1, r4, lsl #8
 8002a86:	7edc      	ldrb	r4, [r3, #27]
 8002a88:	9a05      	ldr	r2, [sp, #20]
 8002a8a:	ea4e 2304 	orr.w	r3, lr, r4, lsl #8
 8002a8e:	ea43 410c 	orr.w	r1, r3, ip, lsl #16
 8002a92:	6191      	str	r1, [r2, #24]
 8002a94:	e004      	b.n	8002aa0 <f_chdir+0x5c>
 8002a96:	2804      	cmp	r0, #4
 8002a98:	bf08      	it	eq
 8002a9a:	2005      	moveq	r0, #5
 8002a9c:	e000      	b.n	8002aa0 <f_chdir+0x5c>
 8002a9e:	2005      	movs	r0, #5
 8002aa0:	f50d 7d0e 	add.w	sp, sp, #568	; 0x238
 8002aa4:	bd10      	pop	{r4, pc}

08002aa6 <f_lseek>:
 8002aa6:	b5f8      	push	{r3, r4, r5, r6, r7, lr}
 8002aa8:	4604      	mov	r4, r0
 8002aaa:	460d      	mov	r5, r1
 8002aac:	6800      	ldr	r0, [r0, #0]
 8002aae:	88a1      	ldrh	r1, [r4, #4]
 8002ab0:	f7fe fe2f 	bl	8001712 <validate>
 8002ab4:	4606      	mov	r6, r0
 8002ab6:	2800      	cmp	r0, #0
 8002ab8:	f040 809b 	bne.w	8002bf2 <f_lseek+0x14c>
 8002abc:	79a2      	ldrb	r2, [r4, #6]
 8002abe:	0613      	lsls	r3, r2, #24
 8002ac0:	f100 8096 	bmi.w	8002bf0 <f_lseek+0x14a>
 8002ac4:	68e3      	ldr	r3, [r4, #12]
 8002ac6:	429d      	cmp	r5, r3
 8002ac8:	d903      	bls.n	8002ad2 <f_lseek+0x2c>
 8002aca:	f012 0f02 	tst.w	r2, #2
 8002ace:	bf08      	it	eq
 8002ad0:	461d      	moveq	r5, r3
 8002ad2:	2000      	movs	r0, #0
 8002ad4:	68a1      	ldr	r1, [r4, #8]
 8002ad6:	60a0      	str	r0, [r4, #8]
 8002ad8:	b90d      	cbnz	r5, 8002ade <f_lseek+0x38>
 8002ada:	2500      	movs	r5, #0
 8002adc:	e056      	b.n	8002b8c <f_lseek+0xe6>
 8002ade:	6820      	ldr	r0, [r4, #0]
 8002ae0:	7887      	ldrb	r7, [r0, #2]
 8002ae2:	027f      	lsls	r7, r7, #9
 8002ae4:	b179      	cbz	r1, 8002b06 <f_lseek+0x60>
 8002ae6:	f101 3cff 	add.w	ip, r1, #4294967295
 8002aea:	1e6a      	subs	r2, r5, #1
 8002aec:	fbb2 f3f7 	udiv	r3, r2, r7
 8002af0:	fbbc f1f7 	udiv	r1, ip, r7
 8002af4:	428b      	cmp	r3, r1
 8002af6:	d306      	bcc.n	8002b06 <f_lseek+0x60>
 8002af8:	4278      	negs	r0, r7
 8002afa:	ea00 020c 	and.w	r2, r0, ip
 8002afe:	60a2      	str	r2, [r4, #8]
 8002b00:	1aad      	subs	r5, r5, r2
 8002b02:	6961      	ldr	r1, [r4, #20]
 8002b04:	e00c      	b.n	8002b20 <f_lseek+0x7a>
 8002b06:	6921      	ldr	r1, [r4, #16]
 8002b08:	b949      	cbnz	r1, 8002b1e <f_lseek+0x78>
 8002b0a:	f7ff f931 	bl	8001d70 <create_chain>
 8002b0e:	2801      	cmp	r0, #1
 8002b10:	4601      	mov	r1, r0
 8002b12:	d100      	bne.n	8002b16 <f_lseek+0x70>
 8002b14:	e032      	b.n	8002b7c <f_lseek+0xd6>
 8002b16:	3001      	adds	r0, #1
 8002b18:	d100      	bne.n	8002b1c <f_lseek+0x76>
 8002b1a:	e058      	b.n	8002bce <f_lseek+0x128>
 8002b1c:	6121      	str	r1, [r4, #16]
 8002b1e:	6161      	str	r1, [r4, #20]
 8002b20:	2900      	cmp	r1, #0
 8002b22:	d0da      	beq.n	8002ada <f_lseek+0x34>
 8002b24:	e01c      	b.n	8002b60 <f_lseek+0xba>
 8002b26:	f894 e006 	ldrb.w	lr, [r4, #6]
 8002b2a:	6820      	ldr	r0, [r4, #0]
 8002b2c:	ea5f 728e 	movs.w	r2, lr, lsl #30
 8002b30:	d504      	bpl.n	8002b3c <f_lseek+0x96>
 8002b32:	f7ff f91d 	bl	8001d70 <create_chain>
 8002b36:	4601      	mov	r1, r0
 8002b38:	b918      	cbnz	r0, 8002b42 <f_lseek+0x9c>
 8002b3a:	e014      	b.n	8002b66 <f_lseek+0xc0>
 8002b3c:	f7fe ffe9 	bl	8001b12 <get_fat>
 8002b40:	4601      	mov	r1, r0
 8002b42:	1c4b      	adds	r3, r1, #1
 8002b44:	d100      	bne.n	8002b48 <f_lseek+0xa2>
 8002b46:	e042      	b.n	8002bce <f_lseek+0x128>
 8002b48:	2901      	cmp	r1, #1
 8002b4a:	d917      	bls.n	8002b7c <f_lseek+0xd6>
 8002b4c:	6823      	ldr	r3, [r4, #0]
 8002b4e:	69d8      	ldr	r0, [r3, #28]
 8002b50:	4281      	cmp	r1, r0
 8002b52:	d300      	bcc.n	8002b56 <f_lseek+0xb0>
 8002b54:	e012      	b.n	8002b7c <f_lseek+0xd6>
 8002b56:	68a2      	ldr	r2, [r4, #8]
 8002b58:	6161      	str	r1, [r4, #20]
 8002b5a:	19d3      	adds	r3, r2, r7
 8002b5c:	60a3      	str	r3, [r4, #8]
 8002b5e:	1bed      	subs	r5, r5, r7
 8002b60:	42bd      	cmp	r5, r7
 8002b62:	d8e0      	bhi.n	8002b26 <f_lseek+0x80>
 8002b64:	e000      	b.n	8002b68 <f_lseek+0xc2>
 8002b66:	463d      	mov	r5, r7
 8002b68:	68a0      	ldr	r0, [r4, #8]
 8002b6a:	05eb      	lsls	r3, r5, #23
 8002b6c:	eb00 0205 	add.w	r2, r0, r5
 8002b70:	60a2      	str	r2, [r4, #8]
 8002b72:	d0b2      	beq.n	8002ada <f_lseek+0x34>
 8002b74:	6820      	ldr	r0, [r4, #0]
 8002b76:	f7fe ffbf 	bl	8001af8 <clust2sect>
 8002b7a:	b928      	cbnz	r0, 8002b88 <f_lseek+0xe2>
 8002b7c:	f894 e006 	ldrb.w	lr, [r4, #6]
 8002b80:	f06e 037f 	orn	r3, lr, #127	; 0x7f
 8002b84:	71a3      	strb	r3, [r4, #6]
 8002b86:	e033      	b.n	8002bf0 <f_lseek+0x14a>
 8002b88:	eb00 2555 	add.w	r5, r0, r5, lsr #9
 8002b8c:	68a1      	ldr	r1, [r4, #8]
 8002b8e:	05cb      	lsls	r3, r1, #23
 8002b90:	d024      	beq.n	8002bdc <f_lseek+0x136>
 8002b92:	69a2      	ldr	r2, [r4, #24]
 8002b94:	4295      	cmp	r5, r2
 8002b96:	d021      	beq.n	8002bdc <f_lseek+0x136>
 8002b98:	f894 c006 	ldrb.w	ip, [r4, #6]
 8002b9c:	ea5f 604c 	movs.w	r0, ip, lsl #25
 8002ba0:	d50c      	bpl.n	8002bbc <f_lseek+0x116>
 8002ba2:	4621      	mov	r1, r4
 8002ba4:	f851 3b24 	ldr.w	r3, [r1], #36
 8002ba8:	7858      	ldrb	r0, [r3, #1]
 8002baa:	2301      	movs	r3, #1
 8002bac:	f000 fdd2 	bl	8003754 <disk_write>
 8002bb0:	79a1      	ldrb	r1, [r4, #6]
 8002bb2:	b100      	cbz	r0, 8002bb6 <f_lseek+0x110>
 8002bb4:	e00c      	b.n	8002bd0 <f_lseek+0x12a>
 8002bb6:	f021 0040 	bic.w	r0, r1, #64	; 0x40
 8002bba:	71a0      	strb	r0, [r4, #6]
 8002bbc:	4621      	mov	r1, r4
 8002bbe:	f851 2b24 	ldr.w	r2, [r1], #36
 8002bc2:	2301      	movs	r3, #1
 8002bc4:	7850      	ldrb	r0, [r2, #1]
 8002bc6:	462a      	mov	r2, r5
 8002bc8:	f000 fd74 	bl	80036b4 <disk_read>
 8002bcc:	b128      	cbz	r0, 8002bda <f_lseek+0x134>
 8002bce:	79a1      	ldrb	r1, [r4, #6]
 8002bd0:	f061 067f 	orn	r6, r1, #127	; 0x7f
 8002bd4:	71a6      	strb	r6, [r4, #6]
 8002bd6:	2601      	movs	r6, #1
 8002bd8:	e00b      	b.n	8002bf2 <f_lseek+0x14c>
 8002bda:	61a5      	str	r5, [r4, #24]
 8002bdc:	68a1      	ldr	r1, [r4, #8]
 8002bde:	68e3      	ldr	r3, [r4, #12]
 8002be0:	4299      	cmp	r1, r3
 8002be2:	d906      	bls.n	8002bf2 <f_lseek+0x14c>
 8002be4:	79a0      	ldrb	r0, [r4, #6]
 8002be6:	60e1      	str	r1, [r4, #12]
 8002be8:	f040 0220 	orr.w	r2, r0, #32
 8002bec:	71a2      	strb	r2, [r4, #6]
 8002bee:	e000      	b.n	8002bf2 <f_lseek+0x14c>
 8002bf0:	2602      	movs	r6, #2
 8002bf2:	4630      	mov	r0, r6
 8002bf4:	bdf8      	pop	{r3, r4, r5, r6, r7, pc}

08002bf6 <f_stat>:
 8002bf6:	b530      	push	{r4, r5, lr}
 8002bf8:	f5ad 7d0f 	sub.w	sp, sp, #572	; 0x23c
 8002bfc:	9001      	str	r0, [sp, #4]
 8002bfe:	460d      	mov	r5, r1
 8002c00:	a801      	add	r0, sp, #4
 8002c02:	a905      	add	r1, sp, #20
 8002c04:	2200      	movs	r2, #0
 8002c06:	f7fe fddf 	bl	80017c8 <chk_mounted>
 8002c0a:	4604      	mov	r4, r0
 8002c0c:	b988      	cbnz	r0, 8002c32 <f_stat+0x3c>
 8002c0e:	a80e      	add	r0, sp, #56	; 0x38
 8002c10:	ab02      	add	r3, sp, #8
 8002c12:	900c      	str	r0, [sp, #48]	; 0x30
 8002c14:	9901      	ldr	r1, [sp, #4]
 8002c16:	a805      	add	r0, sp, #20
 8002c18:	930b      	str	r3, [sp, #44]	; 0x2c
 8002c1a:	f7ff fa0f 	bl	800203c <follow_path>
 8002c1e:	4604      	mov	r4, r0
 8002c20:	b938      	cbnz	r0, 8002c32 <f_stat+0x3c>
 8002c22:	990a      	ldr	r1, [sp, #40]	; 0x28
 8002c24:	b121      	cbz	r1, 8002c30 <f_stat+0x3a>
 8002c26:	a805      	add	r0, sp, #20
 8002c28:	4629      	mov	r1, r5
 8002c2a:	f7fe fc4f 	bl	80014cc <get_fileinfo>
 8002c2e:	e000      	b.n	8002c32 <f_stat+0x3c>
 8002c30:	2406      	movs	r4, #6
 8002c32:	4620      	mov	r0, r4
 8002c34:	f50d 7d0f 	add.w	sp, sp, #572	; 0x23c
 8002c38:	bd30      	pop	{r4, r5, pc}

08002c3a <f_truncate>:
 8002c3a:	b570      	push	{r4, r5, r6, lr}
 8002c3c:	4604      	mov	r4, r0
 8002c3e:	88a1      	ldrh	r1, [r4, #4]
 8002c40:	6800      	ldr	r0, [r0, #0]
 8002c42:	f7fe fd66 	bl	8001712 <validate>
 8002c46:	4605      	mov	r5, r0
 8002c48:	2800      	cmp	r0, #0
 8002c4a:	d13e      	bne.n	8002cca <f_truncate+0x90>
 8002c4c:	79a3      	ldrb	r3, [r4, #6]
 8002c4e:	0619      	lsls	r1, r3, #24
 8002c50:	d42f      	bmi.n	8002cb2 <f_truncate+0x78>
 8002c52:	079a      	lsls	r2, r3, #30
 8002c54:	d52f      	bpl.n	8002cb6 <f_truncate+0x7c>
 8002c56:	e027      	b.n	8002ca8 <f_truncate+0x6e>
 8002c58:	f043 0020 	orr.w	r0, r3, #32
 8002c5c:	71a0      	strb	r0, [r4, #6]
 8002c5e:	60e6      	str	r6, [r4, #12]
 8002c60:	6820      	ldr	r0, [r4, #0]
 8002c62:	b92e      	cbnz	r6, 8002c70 <f_truncate+0x36>
 8002c64:	6921      	ldr	r1, [r4, #16]
 8002c66:	f7ff fb87 	bl	8002378 <remove_chain>
 8002c6a:	6126      	str	r6, [r4, #16]
 8002c6c:	4605      	mov	r5, r0
 8002c6e:	e014      	b.n	8002c9a <f_truncate+0x60>
 8002c70:	6961      	ldr	r1, [r4, #20]
 8002c72:	f7fe ff4e 	bl	8001b12 <get_fat>
 8002c76:	4606      	mov	r6, r0
 8002c78:	3001      	adds	r0, #1
 8002c7a:	d01e      	beq.n	8002cba <f_truncate+0x80>
 8002c7c:	2e01      	cmp	r6, #1
 8002c7e:	d120      	bne.n	8002cc2 <f_truncate+0x88>
 8002c80:	e01d      	b.n	8002cbe <f_truncate+0x84>
 8002c82:	6961      	ldr	r1, [r4, #20]
 8002c84:	f06f 4270 	mvn.w	r2, #4026531840	; 0xf0000000
 8002c88:	f7fe ffef 	bl	8001c6a <put_fat>
 8002c8c:	4605      	mov	r5, r0
 8002c8e:	b928      	cbnz	r0, 8002c9c <f_truncate+0x62>
 8002c90:	6820      	ldr	r0, [r4, #0]
 8002c92:	4631      	mov	r1, r6
 8002c94:	f7ff fb70 	bl	8002378 <remove_chain>
 8002c98:	4605      	mov	r5, r0
 8002c9a:	b1b5      	cbz	r5, 8002cca <f_truncate+0x90>
 8002c9c:	f894 c006 	ldrb.w	ip, [r4, #6]
 8002ca0:	f06c 037f 	orn	r3, ip, #127	; 0x7f
 8002ca4:	71a3      	strb	r3, [r4, #6]
 8002ca6:	e010      	b.n	8002cca <f_truncate+0x90>
 8002ca8:	68a6      	ldr	r6, [r4, #8]
 8002caa:	68e2      	ldr	r2, [r4, #12]
 8002cac:	42b2      	cmp	r2, r6
 8002cae:	d8d3      	bhi.n	8002c58 <f_truncate+0x1e>
 8002cb0:	e00b      	b.n	8002cca <f_truncate+0x90>
 8002cb2:	2502      	movs	r5, #2
 8002cb4:	e009      	b.n	8002cca <f_truncate+0x90>
 8002cb6:	2507      	movs	r5, #7
 8002cb8:	e007      	b.n	8002cca <f_truncate+0x90>
 8002cba:	2501      	movs	r5, #1
 8002cbc:	e7ee      	b.n	8002c9c <f_truncate+0x62>
 8002cbe:	2502      	movs	r5, #2
 8002cc0:	e7ec      	b.n	8002c9c <f_truncate+0x62>
 8002cc2:	6820      	ldr	r0, [r4, #0]
 8002cc4:	69c1      	ldr	r1, [r0, #28]
 8002cc6:	428e      	cmp	r6, r1
 8002cc8:	d3db      	bcc.n	8002c82 <f_truncate+0x48>
 8002cca:	4628      	mov	r0, r5
 8002ccc:	bd70      	pop	{r4, r5, r6, pc}

08002cce <f_mkdir>:
 8002cce:	e92d 4ff0 	stmdb	sp!, {r4, r5, r6, r7, r8, r9, sl, fp, lr}
 8002cd2:	f5ad 7d15 	sub.w	sp, sp, #596	; 0x254
 8002cd6:	9007      	str	r0, [sp, #28]
 8002cd8:	f7fe fbbe 	bl	8001458 <get_fattime>
 8002cdc:	a90b      	add	r1, sp, #44	; 0x2c
 8002cde:	4606      	mov	r6, r0
 8002ce0:	2201      	movs	r2, #1
 8002ce2:	a807      	add	r0, sp, #28
 8002ce4:	f7fe fd70 	bl	80017c8 <chk_mounted>
 8002ce8:	4601      	mov	r1, r0
 8002cea:	2800      	cmp	r0, #0
 8002cec:	f040 80de 	bne.w	8002eac <f_mkdir+0x1de>
 8002cf0:	a814      	add	r0, sp, #80	; 0x50
 8002cf2:	ab08      	add	r3, sp, #32
 8002cf4:	9012      	str	r0, [sp, #72]	; 0x48
 8002cf6:	9907      	ldr	r1, [sp, #28]
 8002cf8:	a80b      	add	r0, sp, #44	; 0x2c
 8002cfa:	9311      	str	r3, [sp, #68]	; 0x44
 8002cfc:	f7ff f99e 	bl	800203c <follow_path>
 8002d00:	4601      	mov	r1, r0
 8002d02:	2800      	cmp	r0, #0
 8002d04:	f000 80b9 	beq.w	8002e7a <f_mkdir+0x1ac>
 8002d08:	2804      	cmp	r0, #4
 8002d0a:	f040 80cf 	bne.w	8002eac <f_mkdir+0x1de>
 8002d0e:	9911      	ldr	r1, [sp, #68]	; 0x44
 8002d10:	7aca      	ldrb	r2, [r1, #11]
 8002d12:	f002 0320 	and.w	r3, r2, #32
 8002d16:	f003 04ff 	and.w	r4, r3, #255	; 0xff
 8002d1a:	2b00      	cmp	r3, #0
 8002d1c:	f040 80af 	bne.w	8002e7e <f_mkdir+0x1b0>
 8002d20:	e0af      	b.n	8002e82 <f_mkdir+0x1b4>
 8002d22:	2d01      	cmp	r5, #1
 8002d24:	f000 80b7 	beq.w	8002e96 <f_mkdir+0x1c8>
 8002d28:	1c6a      	adds	r2, r5, #1
 8002d2a:	bf08      	it	eq
 8002d2c:	2301      	moveq	r3, #1
 8002d2e:	f000 8084 	beq.w	8002e3a <f_mkdir+0x16c>
 8002d32:	e0b2      	b.n	8002e9a <f_mkdir+0x1cc>
 8002d34:	9c0b      	ldr	r4, [sp, #44]	; 0x2c
 8002d36:	4629      	mov	r1, r5
 8002d38:	4620      	mov	r0, r4
 8002d3a:	9302      	str	r3, [sp, #8]
 8002d3c:	f7fe fedc 	bl	8001af8 <clust2sect>
 8002d40:	9902      	ldr	r1, [sp, #8]
 8002d42:	4680      	mov	r8, r0
 8002d44:	f104 0734 	add.w	r7, r4, #52	; 0x34
 8002d48:	4608      	mov	r0, r1
 8002d4a:	5478      	strb	r0, [r7, r1]
 8002d4c:	3101      	adds	r1, #1
 8002d4e:	f5b1 7f00 	cmp.w	r1, #512	; 0x200
 8002d52:	d1fa      	bne.n	8002d4a <f_mkdir+0x7c>
 8002d54:	2300      	movs	r3, #0
 8002d56:	2220      	movs	r2, #32
 8002d58:	54fa      	strb	r2, [r7, r3]
 8002d5a:	3301      	adds	r3, #1
 8002d5c:	2b0b      	cmp	r3, #11
 8002d5e:	d1fb      	bne.n	8002d58 <f_mkdir+0x8a>
 8002d60:	2010      	movs	r0, #16
 8002d62:	f884 003f 	strb.w	r0, [r4, #63]	; 0x3f
 8002d66:	b2e9      	uxtb	r1, r5
 8002d68:	f3c5 2207 	ubfx	r2, r5, #8, #8
 8002d6c:	0c28      	lsrs	r0, r5, #16
 8002d6e:	232e      	movs	r3, #46	; 0x2e
 8002d70:	f884 104e 	strb.w	r1, [r4, #78]	; 0x4e
 8002d74:	f884 204f 	strb.w	r2, [r4, #79]	; 0x4f
 8002d78:	fa5f fb86 	uxtb.w	fp, r6
 8002d7c:	f3c6 2a07 	ubfx	sl, r6, #8, #8
 8002d80:	f3c6 4907 	ubfx	r9, r6, #16, #8
 8002d84:	9103      	str	r1, [sp, #12]
 8002d86:	9204      	str	r2, [sp, #16]
 8002d88:	b2c1      	uxtb	r1, r0
 8002d8a:	0a02      	lsrs	r2, r0, #8
 8002d8c:	0e36      	lsrs	r6, r6, #24
 8002d8e:	f884 3034 	strb.w	r3, [r4, #52]	; 0x34
 8002d92:	f884 1048 	strb.w	r1, [r4, #72]	; 0x48
 8002d96:	f884 2049 	strb.w	r2, [r4, #73]	; 0x49
 8002d9a:	f884 b04a 	strb.w	fp, [r4, #74]	; 0x4a
 8002d9e:	f884 a04b 	strb.w	sl, [r4, #75]	; 0x4b
 8002da2:	f884 904c 	strb.w	r9, [r4, #76]	; 0x4c
 8002da6:	f884 604d 	strb.w	r6, [r4, #77]	; 0x4d
 8002daa:	9105      	str	r1, [sp, #20]
 8002dac:	9206      	str	r2, [sp, #24]
 8002dae:	f104 0054 	add.w	r0, r4, #84	; 0x54
 8002db2:	4639      	mov	r1, r7
 8002db4:	2220      	movs	r2, #32
 8002db6:	9302      	str	r3, [sp, #8]
 8002db8:	f7fe fb6f 	bl	800149a <mem_cpy>
 8002dbc:	9b02      	ldr	r3, [sp, #8]
 8002dbe:	9a0b      	ldr	r2, [sp, #44]	; 0x2c
 8002dc0:	f884 3055 	strb.w	r3, [r4, #85]	; 0x55
 8002dc4:	7811      	ldrb	r1, [r2, #0]
 8002dc6:	980d      	ldr	r0, [sp, #52]	; 0x34
 8002dc8:	2903      	cmp	r1, #3
 8002dca:	d103      	bne.n	8002dd4 <f_mkdir+0x106>
 8002dcc:	6a93      	ldr	r3, [r2, #40]	; 0x28
 8002dce:	4298      	cmp	r0, r3
 8002dd0:	bf08      	it	eq
 8002dd2:	2000      	moveq	r0, #0
 8002dd4:	f3c0 2c07 	ubfx	ip, r0, #8, #8
 8002dd8:	f884 006e 	strb.w	r0, [r4, #110]	; 0x6e
 8002ddc:	0c00      	lsrs	r0, r0, #16
 8002dde:	0a01      	lsrs	r1, r0, #8
 8002de0:	f884 c06f 	strb.w	ip, [r4, #111]	; 0x6f
 8002de4:	f884 0068 	strb.w	r0, [r4, #104]	; 0x68
 8002de8:	f884 1069 	strb.w	r1, [r4, #105]	; 0x69
 8002dec:	7894      	ldrb	r4, [r2, #2]
 8002dee:	f04f 0c01 	mov.w	ip, #1
 8002df2:	2200      	movs	r2, #0
 8002df4:	e01a      	b.n	8002e2c <f_mkdir+0x15e>
 8002df6:	980b      	ldr	r0, [sp, #44]	; 0x2c
 8002df8:	2100      	movs	r1, #0
 8002dfa:	f8c0 8030 	str.w	r8, [r0, #48]	; 0x30
 8002dfe:	f880 c004 	strb.w	ip, [r0, #4]
 8002e02:	9201      	str	r2, [sp, #4]
 8002e04:	f8cd c008 	str.w	ip, [sp, #8]
 8002e08:	f7fe fbe7 	bl	80015da <move_window>
 8002e0c:	f108 0801 	add.w	r8, r8, #1
 8002e10:	4603      	mov	r3, r0
 8002e12:	9a01      	ldr	r2, [sp, #4]
 8002e14:	f8dd c008 	ldr.w	ip, [sp, #8]
 8002e18:	b978      	cbnz	r0, 8002e3a <f_mkdir+0x16c>
 8002e1a:	54fa      	strb	r2, [r7, r3]
 8002e1c:	3301      	adds	r3, #1
 8002e1e:	f5b3 7f00 	cmp.w	r3, #512	; 0x200
 8002e22:	d1fa      	bne.n	8002e1a <f_mkdir+0x14c>
 8002e24:	f104 3eff 	add.w	lr, r4, #4294967295
 8002e28:	fa5f f48e 	uxtb.w	r4, lr
 8002e2c:	2c00      	cmp	r4, #0
 8002e2e:	d1e2      	bne.n	8002df6 <f_mkdir+0x128>
 8002e30:	a80b      	add	r0, sp, #44	; 0x2c
 8002e32:	f7ff fb1f 	bl	8002474 <dir_register>
 8002e36:	4603      	mov	r3, r0
 8002e38:	b130      	cbz	r0, 8002e48 <f_mkdir+0x17a>
 8002e3a:	4629      	mov	r1, r5
 8002e3c:	980b      	ldr	r0, [sp, #44]	; 0x2c
 8002e3e:	9302      	str	r3, [sp, #8]
 8002e40:	f7ff fa9a 	bl	8002378 <remove_chain>
 8002e44:	9902      	ldr	r1, [sp, #8]
 8002e46:	e031      	b.n	8002eac <f_mkdir+0x1de>
 8002e48:	9b10      	ldr	r3, [sp, #64]	; 0x40
 8002e4a:	9803      	ldr	r0, [sp, #12]
 8002e4c:	2210      	movs	r2, #16
 8002e4e:	7698      	strb	r0, [r3, #26]
 8002e50:	9806      	ldr	r0, [sp, #24]
 8002e52:	72da      	strb	r2, [r3, #11]
 8002e54:	9904      	ldr	r1, [sp, #16]
 8002e56:	9a05      	ldr	r2, [sp, #20]
 8002e58:	7558      	strb	r0, [r3, #21]
 8002e5a:	980b      	ldr	r0, [sp, #44]	; 0x2c
 8002e5c:	76d9      	strb	r1, [r3, #27]
 8002e5e:	f883 b016 	strb.w	fp, [r3, #22]
 8002e62:	f883 a017 	strb.w	sl, [r3, #23]
 8002e66:	f883 9018 	strb.w	r9, [r3, #24]
 8002e6a:	765e      	strb	r6, [r3, #25]
 8002e6c:	751a      	strb	r2, [r3, #20]
 8002e6e:	2301      	movs	r3, #1
 8002e70:	7103      	strb	r3, [r0, #4]
 8002e72:	f7fe fbee 	bl	8001652 <sync>
 8002e76:	4601      	mov	r1, r0
 8002e78:	e018      	b.n	8002eac <f_mkdir+0x1de>
 8002e7a:	2108      	movs	r1, #8
 8002e7c:	e016      	b.n	8002eac <f_mkdir+0x1de>
 8002e7e:	2106      	movs	r1, #6
 8002e80:	e014      	b.n	8002eac <f_mkdir+0x1de>
 8002e82:	980b      	ldr	r0, [sp, #44]	; 0x2c
 8002e84:	4621      	mov	r1, r4
 8002e86:	f7fe ff73 	bl	8001d70 <create_chain>
 8002e8a:	4605      	mov	r5, r0
 8002e8c:	2800      	cmp	r0, #0
 8002e8e:	f47f af48 	bne.w	8002d22 <f_mkdir+0x54>
 8002e92:	2307      	movs	r3, #7
 8002e94:	e7d1      	b.n	8002e3a <f_mkdir+0x16c>
 8002e96:	2302      	movs	r3, #2
 8002e98:	e7cf      	b.n	8002e3a <f_mkdir+0x16c>
 8002e9a:	980b      	ldr	r0, [sp, #44]	; 0x2c
 8002e9c:	4621      	mov	r1, r4
 8002e9e:	f7fe fb9c 	bl	80015da <move_window>
 8002ea2:	4603      	mov	r3, r0
 8002ea4:	2800      	cmp	r0, #0
 8002ea6:	f43f af45 	beq.w	8002d34 <f_mkdir+0x66>
 8002eaa:	e7c6      	b.n	8002e3a <f_mkdir+0x16c>
 8002eac:	4608      	mov	r0, r1
 8002eae:	f50d 7d15 	add.w	sp, sp, #596	; 0x254
 8002eb2:	e8bd 8ff0 	ldmia.w	sp!, {r4, r5, r6, r7, r8, r9, sl, fp, pc}

08002eb6 <f_putc>:
 8002eb6:	b507      	push	{r0, r1, r2, lr}
 8002eb8:	ab02      	add	r3, sp, #8
 8002eba:	f803 0d08 	strb.w	r0, [r3, #-8]!
 8002ebe:	2201      	movs	r2, #1
 8002ec0:	4608      	mov	r0, r1
 8002ec2:	ab01      	add	r3, sp, #4
 8002ec4:	4669      	mov	r1, sp
 8002ec6:	f7ff fc8b 	bl	80027e0 <f_write>
 8002eca:	9801      	ldr	r0, [sp, #4]
 8002ecc:	2801      	cmp	r0, #1
 8002ece:	bf14      	ite	ne
 8002ed0:	f04f 30ff 	movne.w	r0, #4294967295
 8002ed4:	2001      	moveq	r0, #1
 8002ed6:	bd0e      	pop	{r1, r2, r3, pc}

08002ed8 <f_puts>:
 8002ed8:	b570      	push	{r4, r5, r6, lr}
 8002eda:	4605      	mov	r5, r0
 8002edc:	460e      	mov	r6, r1
 8002ede:	2400      	movs	r4, #0
 8002ee0:	e005      	b.n	8002eee <f_puts+0x16>
 8002ee2:	4631      	mov	r1, r6
 8002ee4:	f7ff ffe7 	bl	8002eb6 <f_putc>
 8002ee8:	1c41      	adds	r1, r0, #1
 8002eea:	d004      	beq.n	8002ef6 <f_puts+0x1e>
 8002eec:	3401      	adds	r4, #1
 8002eee:	5d28      	ldrb	r0, [r5, r4]
 8002ef0:	2800      	cmp	r0, #0
 8002ef2:	d1f6      	bne.n	8002ee2 <f_puts+0xa>
 8002ef4:	e000      	b.n	8002ef8 <f_puts+0x20>
 8002ef6:	4604      	mov	r4, r0
 8002ef8:	4620      	mov	r0, r4
 8002efa:	bd70      	pop	{r4, r5, r6, pc}

08002efc <isDST>:
 8002efc:	7883      	ldrb	r3, [r0, #2]
 8002efe:	1eda      	subs	r2, r3, #3
 8002f00:	2a07      	cmp	r2, #7
 8002f02:	d80e      	bhi.n	8002f22 <isDST+0x26>
 8002f04:	7902      	ldrb	r2, [r0, #4]
 8002f06:	78c1      	ldrb	r1, [r0, #3]
 8002f08:	1a89      	subs	r1, r1, r2
 8002f0a:	2918      	cmp	r1, #24
 8002f0c:	dd07      	ble.n	8002f1e <isDST+0x22>
 8002f0e:	b912      	cbnz	r2, 8002f16 <isDST+0x1a>
 8002f10:	7940      	ldrb	r0, [r0, #5]
 8002f12:	2801      	cmp	r0, #1
 8002f14:	d903      	bls.n	8002f1e <isDST+0x22>
 8002f16:	2b0a      	cmp	r3, #10
 8002f18:	d003      	beq.n	8002f22 <isDST+0x26>
 8002f1a:	2001      	movs	r0, #1
 8002f1c:	4770      	bx	lr
 8002f1e:	2b03      	cmp	r3, #3
 8002f20:	e7fa      	b.n	8002f18 <isDST+0x1c>
 8002f22:	2000      	movs	r0, #0
 8002f24:	4770      	bx	lr
	...

08002f28 <counter_to_struct>:
 8002f28:	233c      	movs	r3, #60	; 0x3c
 8002f2a:	fbb0 f2f3 	udiv	r2, r0, r3
 8002f2e:	b530      	push	{r4, r5, lr}
 8002f30:	fbb2 f4f3 	udiv	r4, r2, r3
 8002f34:	fb03 2514 	mls	r5, r3, r4, r2
 8002f38:	fb03 0012 	mls	r0, r3, r2, r0
 8002f3c:	f04f 0c18 	mov.w	ip, #24
 8002f40:	fbb4 f2fc 	udiv	r2, r4, ip
 8002f44:	fb0c 4312 	mls	r3, ip, r2, r4
 8002f48:	71c8      	strb	r0, [r1, #7]
 8002f4a:	718d      	strb	r5, [r1, #6]
 8002f4c:	2007      	movs	r0, #7
 8002f4e:	1d95      	adds	r5, r2, #6
 8002f50:	fb95 f4f0 	sdiv	r4, r5, r0
 8002f54:	714b      	strb	r3, [r1, #5]
 8002f56:	b293      	uxth	r3, r2
 8002f58:	fb00 5214 	mls	r2, r0, r4, r5
 8002f5c:	f04f 0c01 	mov.w	ip, #1
 8002f60:	710a      	strb	r2, [r1, #4]
 8002f62:	f240 156d 	movw	r5, #365	; 0x16d
 8002f66:	2200      	movs	r2, #0
 8002f68:	0790      	lsls	r0, r2, #30
 8002f6a:	d10d      	bne.n	8002f88 <counter_to_struct+0x60>
 8002f6c:	b11a      	cbz	r2, 8002f76 <counter_to_struct+0x4e>
 8002f6e:	2a64      	cmp	r2, #100	; 0x64
 8002f70:	d001      	beq.n	8002f76 <counter_to_struct+0x4e>
 8002f72:	2ac8      	cmp	r2, #200	; 0xc8
 8002f74:	d10b      	bne.n	8002f8e <counter_to_struct+0x66>
 8002f76:	f10c 34ff 	add.w	r4, ip, #4294967295
 8002f7a:	f014 0cff 	ands.w	ip, r4, #255	; 0xff
 8002f7e:	bf14      	ite	ne
 8002f80:	4628      	movne	r0, r5
 8002f82:	f44f 70b7 	moveq.w	r0, #366	; 0x16e
 8002f86:	e004      	b.n	8002f92 <counter_to_struct+0x6a>
 8002f88:	f240 106d 	movw	r0, #365	; 0x16d
 8002f8c:	e001      	b.n	8002f92 <counter_to_struct+0x6a>
 8002f8e:	f44f 70b7 	mov.w	r0, #366	; 0x16e
 8002f92:	4283      	cmp	r3, r0
 8002f94:	d304      	bcc.n	8002fa0 <counter_to_struct+0x78>
 8002f96:	1a1b      	subs	r3, r3, r0
 8002f98:	3201      	adds	r2, #1
 8002f9a:	b29b      	uxth	r3, r3
 8002f9c:	b2d2      	uxtb	r2, r2
 8002f9e:	e7e3      	b.n	8002f68 <counter_to_struct+0x40>
 8002fa0:	f502 64fa 	add.w	r4, r2, #2000	; 0x7d0
 8002fa4:	07c2      	lsls	r2, r0, #31
 8002fa6:	800c      	strh	r4, [r1, #0]
 8002fa8:	d503      	bpl.n	8002fb2 <counter_to_struct+0x8a>
 8002faa:	2b3a      	cmp	r3, #58	; 0x3a
 8002fac:	bf84      	itt	hi
 8002fae:	3301      	addhi	r3, #1
 8002fb0:	b29b      	uxthhi	r3, r3
 8002fb2:	2201      	movs	r2, #1
 8002fb4:	4c07      	ldr	r4, [pc, #28]	; (8002fd4 <counter_to_struct+0xac>)
 8002fb6:	e004      	b.n	8002fc2 <counter_to_struct+0x9a>
 8002fb8:	ebcc 0003 	rsb	r0, ip, r3
 8002fbc:	3201      	adds	r2, #1
 8002fbe:	b283      	uxth	r3, r0
 8002fc0:	b2d2      	uxtb	r2, r2
 8002fc2:	18a0      	adds	r0, r4, r2
 8002fc4:	f810 cc01 	ldrb.w	ip, [r0, #-1]
 8002fc8:	4563      	cmp	r3, ip
 8002fca:	d2f5      	bcs.n	8002fb8 <counter_to_struct+0x90>
 8002fcc:	3301      	adds	r3, #1
 8002fce:	708a      	strb	r2, [r1, #2]
 8002fd0:	70cb      	strb	r3, [r1, #3]
 8002fd2:	bd30      	pop	{r4, r5, pc}
 8002fd4:	0801178f 	stmdaeq	r1, {r0, r1, r2, r3, r7, r8, r9, sl, ip}

08002fd8 <rtc_gettime>:
 8002fd8:	e92d 41f0 	stmdb	sp!, {r4, r5, r6, r7, r8, lr}
 8002fdc:	4604      	mov	r4, r0
 8002fde:	f004 f95d 	bl	800729c <RTC_GetCounter>
 8002fe2:	4605      	mov	r5, r0
 8002fe4:	f004 f95a 	bl	800729c <RTC_GetCounter>
 8002fe8:	4285      	cmp	r5, r0
 8002fea:	d1f8      	bne.n	8002fde <rtc_gettime+0x6>
 8002fec:	4621      	mov	r1, r4
 8002fee:	f7ff ff9b 	bl	8002f28 <counter_to_struct>
 8002ff2:	4620      	mov	r0, r4
 8002ff4:	f894 8005 	ldrb.w	r8, [r4, #5]
 8002ff8:	78e5      	ldrb	r5, [r4, #3]
 8002ffa:	7927      	ldrb	r7, [r4, #4]
 8002ffc:	78a6      	ldrb	r6, [r4, #2]
 8002ffe:	f7ff ff7d 	bl	8002efc <isDST>
 8003002:	b1f0      	cbz	r0, 8003042 <rtc_gettime+0x6a>
 8003004:	2301      	movs	r3, #1
 8003006:	eb08 0003 	add.w	r0, r8, r3
 800300a:	7223      	strb	r3, [r4, #8]
 800300c:	b2c3      	uxtb	r3, r0
 800300e:	2b18      	cmp	r3, #24
 8003010:	d112      	bne.n	8003038 <rtc_gettime+0x60>
 8003012:	490e      	ldr	r1, [pc, #56]	; (800304c <rtc_gettime+0x74>)
 8003014:	3701      	adds	r7, #1
 8003016:	198a      	adds	r2, r1, r6
 8003018:	f812 cc01 	ldrb.w	ip, [r2, #-1]
 800301c:	b2ff      	uxtb	r7, r7
 800301e:	2f07      	cmp	r7, #7
 8003020:	bf08      	it	eq
 8003022:	2700      	moveq	r7, #0
 8003024:	45ac      	cmp	ip, r5
 8003026:	d102      	bne.n	800302e <rtc_gettime+0x56>
 8003028:	3601      	adds	r6, #1
 800302a:	b2f6      	uxtb	r6, r6
 800302c:	2500      	movs	r5, #0
 800302e:	f105 0e01 	add.w	lr, r5, #1
 8003032:	fa5f f58e 	uxtb.w	r5, lr
 8003036:	2300      	movs	r3, #0
 8003038:	70a6      	strb	r6, [r4, #2]
 800303a:	7163      	strb	r3, [r4, #5]
 800303c:	70e5      	strb	r5, [r4, #3]
 800303e:	7127      	strb	r7, [r4, #4]
 8003040:	e000      	b.n	8003044 <rtc_gettime+0x6c>
 8003042:	7220      	strb	r0, [r4, #8]
 8003044:	2001      	movs	r0, #1
 8003046:	e8bd 81f0 	ldmia.w	sp!, {r4, r5, r6, r7, r8, pc}
 800304a:	bf00      	nop
 800304c:	0801178f 	stmdaeq	r1, {r0, r1, r2, r3, r7, r8, r9, sl, ip}

08003050 <my_RTC_SetCounter>:
 8003050:	b510      	push	{r4, lr}
 8003052:	4604      	mov	r4, r0
 8003054:	2001      	movs	r0, #1
 8003056:	f003 ff04 	bl	8006e62 <PWR_BackupAccessCmd>
 800305a:	f004 f965 	bl	8007328 <RTC_WaitForLastTask>
 800305e:	4620      	mov	r0, r4
 8003060:	f004 f926 	bl	80072b0 <RTC_SetCounter>
 8003064:	f004 f960 	bl	8007328 <RTC_WaitForLastTask>
 8003068:	2000      	movs	r0, #0
 800306a:	e8bd 4010 	ldmia.w	sp!, {r4, lr}
 800306e:	f003 bef8 	b.w	8006e62 <PWR_BackupAccessCmd>
	...

08003074 <rtc_settime>:
 8003074:	b5f0      	push	{r4, r5, r6, r7, lr}
 8003076:	8803      	ldrh	r3, [r0, #0]
 8003078:	f240 126d 	movw	r2, #365	; 0x16d
 800307c:	b085      	sub	sp, #20
 800307e:	435a      	muls	r2, r3
 8003080:	b183      	cbz	r3, 80030a4 <rtc_settime+0x30>
 8003082:	1e59      	subs	r1, r3, #1
 8003084:	1cdd      	adds	r5, r3, #3
 8003086:	2404      	movs	r4, #4
 8003088:	f06f 0c63 	mvn.w	ip, #99	; 0x63
 800308c:	fb95 f6f4 	sdiv	r6, r5, r4
 8003090:	fb91 fefc 	sdiv	lr, r1, ip
 8003094:	eb06 050e 	add.w	r5, r6, lr
 8003098:	f44f 74c8 	mov.w	r4, #400	; 0x190
 800309c:	18aa      	adds	r2, r5, r2
 800309e:	fb91 f1f4 	sdiv	r1, r1, r4
 80030a2:	1852      	adds	r2, r2, r1
 80030a4:	7884      	ldrb	r4, [r0, #2]
 80030a6:	f5a2 2632 	sub.w	r6, r2, #729088	; 0xb2000
 80030aa:	f104 3cff 	add.w	ip, r4, #4294967295
 80030ae:	f2a6 5275 	subw	r2, r6, #1397	; 0x575
 80030b2:	fa1f f58c 	uxth.w	r5, ip
 80030b6:	f04f 0e00 	mov.w	lr, #0
 80030ba:	4e22      	ldr	r6, [pc, #136]	; (8003144 <rtc_settime+0xd0>)
 80030bc:	e006      	b.n	80030cc <rtc_settime+0x58>
 80030be:	f816 700e 	ldrb.w	r7, [r6, lr]
 80030c2:	f10e 0c01 	add.w	ip, lr, #1
 80030c6:	19d2      	adds	r2, r2, r7
 80030c8:	fa5f fe8c 	uxtb.w	lr, ip
 80030cc:	45ae      	cmp	lr, r5
 80030ce:	d3f6      	bcc.n	80030be <rtc_settime+0x4a>
 80030d0:	f44f 7ec8 	mov.w	lr, #400	; 0x190
 80030d4:	fbb3 f5fe 	udiv	r5, r3, lr
 80030d8:	fb0e 3115 	mls	r1, lr, r5, r3
 80030dc:	b28d      	uxth	r5, r1
 80030de:	b16d      	cbz	r5, 80030fc <rtc_settime+0x88>
 80030e0:	079d      	lsls	r5, r3, #30
 80030e2:	d107      	bne.n	80030f4 <rtc_settime+0x80>
 80030e4:	f04f 0c64 	mov.w	ip, #100	; 0x64
 80030e8:	fbb3 f1fc 	udiv	r1, r3, ip
 80030ec:	fb0c 3311 	mls	r3, ip, r1, r3
 80030f0:	b29d      	uxth	r5, r3
 80030f2:	b91d      	cbnz	r5, 80030fc <rtc_settime+0x88>
 80030f4:	2c01      	cmp	r4, #1
 80030f6:	bf88      	it	hi
 80030f8:	f102 32ff 	addhi.w	r2, r2, #4294967295
 80030fc:	79c4      	ldrb	r4, [r0, #7]
 80030fe:	f890 c005 	ldrb.w	ip, [r0, #5]
 8003102:	f5a4 3ea8 	sub.w	lr, r4, #86016	; 0x15000
 8003106:	f44f 6161 	mov.w	r1, #3600	; 0xe10
 800310a:	f5ae 75c0 	sub.w	r5, lr, #384	; 0x180
 800310e:	fb01 5e0c 	mla	lr, r1, ip, r5
 8003112:	7983      	ldrb	r3, [r0, #6]
 8003114:	243c      	movs	r4, #60	; 0x3c
 8003116:	fb04 e103 	mla	r1, r4, r3, lr
 800311a:	78c0      	ldrb	r0, [r0, #3]
 800311c:	4b0a      	ldr	r3, [pc, #40]	; (8003148 <rtc_settime+0xd4>)
 800311e:	1812      	adds	r2, r2, r0
 8003120:	fb03 1402 	mla	r4, r3, r2, r1
 8003124:	a901      	add	r1, sp, #4
 8003126:	4620      	mov	r0, r4
 8003128:	f7ff fefe 	bl	8002f28 <counter_to_struct>
 800312c:	a801      	add	r0, sp, #4
 800312e:	f7ff fee5 	bl	8002efc <isDST>
 8003132:	b108      	cbz	r0, 8003138 <rtc_settime+0xc4>
 8003134:	f5a4 6461 	sub.w	r4, r4, #3600	; 0xe10
 8003138:	4620      	mov	r0, r4
 800313a:	f7ff ff89 	bl	8003050 <my_RTC_SetCounter>
 800313e:	2001      	movs	r0, #1
 8003140:	b005      	add	sp, #20
 8003142:	bdf0      	pop	{r4, r5, r6, r7, pc}
 8003144:	0801178f 	stmdaeq	r1, {r0, r1, r2, r3, r7, r8, r9, sl, ip}
 8003148:	00015180 	andeq	r5, r1, r0, lsl #3

0800314c <rtc_init>:
 800314c:	b507      	push	{r0, r1, r2, lr}
 800314e:	f04f 50c0 	mov.w	r0, #402653184	; 0x18000000
 8003152:	2101      	movs	r1, #1
 8003154:	f004 f80a 	bl	800716c <RCC_APB1PeriphClockCmd>
 8003158:	2300      	movs	r3, #0
 800315a:	f8ad 3006 	strh.w	r3, [sp, #6]
 800315e:	f241 3c87 	movw	ip, #4999	; 0x1387
 8003162:	e006      	b.n	8003172 <rtc_init+0x26>
 8003164:	f8bd e006 	ldrh.w	lr, [sp, #6]
 8003168:	f10e 0301 	add.w	r3, lr, #1
 800316c:	b29a      	uxth	r2, r3
 800316e:	f8ad 2006 	strh.w	r2, [sp, #6]
 8003172:	f8bd 2006 	ldrh.w	r2, [sp, #6]
 8003176:	b290      	uxth	r0, r2
 8003178:	4560      	cmp	r0, ip
 800317a:	d9f3      	bls.n	8003164 <rtc_init+0x18>
 800317c:	2004      	movs	r0, #4
 800317e:	f003 f97b 	bl	8006478 <BKP_ReadBackupRegister>
 8003182:	f24a 51a5 	movw	r1, #42405	; 0xa5a5
 8003186:	4288      	cmp	r0, r1
 8003188:	d02c      	beq.n	80031e4 <rtc_init+0x98>
 800318a:	2001      	movs	r0, #1
 800318c:	f003 fe69 	bl	8006e62 <PWR_BackupAccessCmd>
 8003190:	f003 f932 	bl	80063f8 <BKP_DeInit>
 8003194:	2001      	movs	r0, #1
 8003196:	f003 ff63 	bl	8007060 <RCC_LSEConfig>
 800319a:	2041      	movs	r0, #65	; 0x41
 800319c:	f004 f81c 	bl	80071d8 <RCC_GetFlagStatus>
 80031a0:	2800      	cmp	r0, #0
 80031a2:	d0fa      	beq.n	800319a <rtc_init+0x4e>
 80031a4:	f44f 7080 	mov.w	r0, #256	; 0x100
 80031a8:	f003 ff70 	bl	800708c <RCC_RTCCLKConfig>
 80031ac:	2001      	movs	r0, #1
 80031ae:	f003 ff75 	bl	800709c <RCC_RTCCLKCmd>
 80031b2:	f004 f8c1 	bl	8007338 <RTC_WaitForSynchro>
 80031b6:	f004 f8b7 	bl	8007328 <RTC_WaitForLastTask>
 80031ba:	f647 70ff 	movw	r0, #32767	; 0x7fff
 80031be:	f004 f887 	bl	80072d0 <RTC_SetPrescaler>
 80031c2:	f004 f8b1 	bl	8007328 <RTC_WaitForLastTask>
 80031c6:	f24a 7094 	movw	r0, #42900	; 0xa794
 80031ca:	f004 f871 	bl	80072b0 <RTC_SetCounter>
 80031ce:	f004 f8ab 	bl	8007328 <RTC_WaitForLastTask>
 80031d2:	2004      	movs	r0, #4
 80031d4:	f24a 51a5 	movw	r1, #42405	; 0xa5a5
 80031d8:	f003 f940 	bl	800645c <BKP_WriteBackupRegister>
 80031dc:	2000      	movs	r0, #0
 80031de:	f003 fe40 	bl	8006e62 <PWR_BackupAccessCmd>
 80031e2:	e001      	b.n	80031e8 <rtc_init+0x9c>
 80031e4:	f004 f8a8 	bl	8007338 <RTC_WaitForSynchro>
 80031e8:	2000      	movs	r0, #0
 80031ea:	bd0e      	pop	{r1, r2, r3, pc}

080031ec <power_on>:
 80031ec:	b570      	push	{r4, r5, r6, lr}
 80031ee:	2008      	movs	r0, #8
 80031f0:	b088      	sub	sp, #32
 80031f2:	2101      	movs	r1, #1
 80031f4:	f003 ffae 	bl	8007154 <RCC_APB2PeriphClockCmd>
 80031f8:	f44f 5080 	mov.w	r0, #4096	; 0x1000
 80031fc:	2101      	movs	r1, #1
 80031fe:	f003 ffa9 	bl	8007154 <RCC_APB2PeriphClockCmd>
 8003202:	4b33      	ldr	r3, [pc, #204]	; (80032d0 <power_on+0xe4>)
 8003204:	2219      	movs	r2, #25
 8003206:	601a      	str	r2, [r3, #0]
 8003208:	681c      	ldr	r4, [r3, #0]
 800320a:	2c00      	cmp	r4, #0
 800320c:	d1fc      	bne.n	8003208 <power_on+0x1c>
 800320e:	2010      	movs	r0, #16
 8003210:	f44f 4680 	mov.w	r6, #16384	; 0x4000
 8003214:	f88d 000b 	strb.w	r0, [sp, #11]
 8003218:	2503      	movs	r5, #3
 800321a:	482e      	ldr	r0, [pc, #184]	; (80032d4 <power_on+0xe8>)
 800321c:	a902      	add	r1, sp, #8
 800321e:	f8ad 6008 	strh.w	r6, [sp, #8]
 8003222:	f88d 500a 	strb.w	r5, [sp, #10]
 8003226:	f003 fb40 	bl	80068aa <GPIO_Init>
 800322a:	482a      	ldr	r0, [pc, #168]	; (80032d4 <power_on+0xe8>)
 800322c:	4631      	mov	r1, r6
 800322e:	f003 fba6 	bl	800697e <GPIO_SetBits>
 8003232:	21a0      	movs	r1, #160	; 0xa0
 8003234:	f04f 0c18 	mov.w	ip, #24
 8003238:	f8ad 1008 	strh.w	r1, [sp, #8]
 800323c:	4826      	ldr	r0, [pc, #152]	; (80032d8 <power_on+0xec>)
 800323e:	a902      	add	r1, sp, #8
 8003240:	f88d c00b 	strb.w	ip, [sp, #11]
 8003244:	f88d 500a 	strb.w	r5, [sp, #10]
 8003248:	f003 fb2f 	bl	80068aa <GPIO_Init>
 800324c:	2248      	movs	r2, #72	; 0x48
 800324e:	2340      	movs	r3, #64	; 0x40
 8003250:	4821      	ldr	r0, [pc, #132]	; (80032d8 <power_on+0xec>)
 8003252:	a902      	add	r1, sp, #8
 8003254:	f88d 200b 	strb.w	r2, [sp, #11]
 8003258:	f8ad 3008 	strh.w	r3, [sp, #8]
 800325c:	f003 fb25 	bl	80068aa <GPIO_Init>
 8003260:	f44f 7082 	mov.w	r0, #260	; 0x104
 8003264:	f44f 7100 	mov.w	r1, #512	; 0x200
 8003268:	f04f 0c38 	mov.w	ip, #56	; 0x38
 800326c:	2307      	movs	r3, #7
 800326e:	f8ad 000e 	strh.w	r0, [sp, #14]
 8003272:	f8ad 1016 	strh.w	r1, [sp, #22]
 8003276:	4819      	ldr	r0, [pc, #100]	; (80032dc <power_on+0xf0>)
 8003278:	a903      	add	r1, sp, #12
 800327a:	f8ad c018 	strh.w	ip, [sp, #24]
 800327e:	f8ad 301c 	strh.w	r3, [sp, #28]
 8003282:	f8ad 400c 	strh.w	r4, [sp, #12]
 8003286:	f8ad 4010 	strh.w	r4, [sp, #16]
 800328a:	f8ad 4012 	strh.w	r4, [sp, #18]
 800328e:	f8ad 4014 	strh.w	r4, [sp, #20]
 8003292:	f8ad 401a 	strh.w	r4, [sp, #26]
 8003296:	f004 f8bf 	bl	8007418 <SPI_Init>
 800329a:	4810      	ldr	r0, [pc, #64]	; (80032dc <power_on+0xf0>)
 800329c:	4621      	mov	r1, r4
 800329e:	f004 f9a0 	bl	80075e2 <SPI_CalculateCRC>
 80032a2:	480e      	ldr	r0, [pc, #56]	; (80032dc <power_on+0xf0>)
 80032a4:	2101      	movs	r1, #1
 80032a6:	f004 f93b 	bl	8007520 <SPI_Cmd>
 80032aa:	480c      	ldr	r0, [pc, #48]	; (80032dc <power_on+0xf0>)
 80032ac:	2102      	movs	r1, #2
 80032ae:	f004 f9bb 	bl	8007628 <SPI_I2S_GetFlagStatus>
 80032b2:	2800      	cmp	r0, #0
 80032b4:	d0f9      	beq.n	80032aa <power_on+0xbe>
 80032b6:	4809      	ldr	r0, [pc, #36]	; (80032dc <power_on+0xf0>)
 80032b8:	f004 f964 	bl	8007584 <SPI_I2S_ReceiveData>
 80032bc:	b2c2      	uxtb	r2, r0
 80032be:	2001      	movs	r0, #1
 80032c0:	4601      	mov	r1, r0
 80032c2:	f88d 2007 	strb.w	r2, [sp, #7]
 80032c6:	f003 ff39 	bl	800713c <RCC_AHBPeriphClockCmd>
 80032ca:	b008      	add	sp, #32
 80032cc:	bd70      	pop	{r4, r5, r6, pc}
 80032ce:	bf00      	nop
 80032d0:	20000998 	mulcs	r0, r8, r9
 80032d4:	40010c00 	andmi	r0, r1, r0, lsl #24
 80032d8:	40010800 	andmi	r0, r1, r0, lsl #16
 80032dc:	40013000 	andmi	r3, r1, r0

080032e0 <stm32_spi_rw>:
 80032e0:	4601      	mov	r1, r0
 80032e2:	b508      	push	{r3, lr}
 80032e4:	4806      	ldr	r0, [pc, #24]	; (8003300 <stm32_spi_rw+0x20>)
 80032e6:	f004 f94b 	bl	8007580 <SPI_I2S_SendData>
 80032ea:	4805      	ldr	r0, [pc, #20]	; (8003300 <stm32_spi_rw+0x20>)
 80032ec:	2101      	movs	r1, #1
 80032ee:	f004 f99b 	bl	8007628 <SPI_I2S_GetFlagStatus>
 80032f2:	2800      	cmp	r0, #0
 80032f4:	d0f9      	beq.n	80032ea <stm32_spi_rw+0xa>
 80032f6:	4802      	ldr	r0, [pc, #8]	; (8003300 <stm32_spi_rw+0x20>)
 80032f8:	f004 f944 	bl	8007584 <SPI_I2S_ReceiveData>
 80032fc:	b2c0      	uxtb	r0, r0
 80032fe:	bd08      	pop	{r3, pc}
 8003300:	40013000 	andmi	r3, r1, r0

08003304 <rcvr_spi>:
 8003304:	20ff      	movs	r0, #255	; 0xff
 8003306:	f7ff bfeb 	b.w	80032e0 <stm32_spi_rw>
	...

0800330c <wait_ready>:
 800330c:	b510      	push	{r4, lr}
 800330e:	4c06      	ldr	r4, [pc, #24]	; (8003328 <wait_ready+0x1c>)
 8003310:	2332      	movs	r3, #50	; 0x32
 8003312:	6023      	str	r3, [r4, #0]
 8003314:	f7ff fff6 	bl	8003304 <rcvr_spi>
 8003318:	f7ff fff4 	bl	8003304 <rcvr_spi>
 800331c:	28ff      	cmp	r0, #255	; 0xff
 800331e:	d002      	beq.n	8003326 <wait_ready+0x1a>
 8003320:	6821      	ldr	r1, [r4, #0]
 8003322:	2900      	cmp	r1, #0
 8003324:	d1f8      	bne.n	8003318 <wait_ready+0xc>
 8003326:	bd10      	pop	{r4, pc}
 8003328:	2000099c 	mulcs	r0, ip, r9

0800332c <send_cmd>:
 800332c:	0602      	lsls	r2, r0, #24
 800332e:	b538      	push	{r3, r4, r5, lr}
 8003330:	4604      	mov	r4, r0
 8003332:	460d      	mov	r5, r1
 8003334:	d507      	bpl.n	8003346 <send_cmd+0x1a>
 8003336:	2077      	movs	r0, #119	; 0x77
 8003338:	2100      	movs	r1, #0
 800333a:	f7ff fff7 	bl	800332c <send_cmd>
 800333e:	2801      	cmp	r0, #1
 8003340:	d83a      	bhi.n	80033b8 <send_cmd+0x8c>
 8003342:	f004 047f 	and.w	r4, r4, #127	; 0x7f
 8003346:	481d      	ldr	r0, [pc, #116]	; (80033bc <send_cmd+0x90>)
 8003348:	f44f 4180 	mov.w	r1, #16384	; 0x4000
 800334c:	f003 fb17 	bl	800697e <GPIO_SetBits>
 8003350:	481a      	ldr	r0, [pc, #104]	; (80033bc <send_cmd+0x90>)
 8003352:	f44f 4180 	mov.w	r1, #16384	; 0x4000
 8003356:	f003 fb14 	bl	8006982 <GPIO_ResetBits>
 800335a:	f7ff ffd7 	bl	800330c <wait_ready>
 800335e:	28ff      	cmp	r0, #255	; 0xff
 8003360:	bf18      	it	ne
 8003362:	20ff      	movne	r0, #255	; 0xff
 8003364:	d128      	bne.n	80033b8 <send_cmd+0x8c>
 8003366:	4620      	mov	r0, r4
 8003368:	f7ff ffba 	bl	80032e0 <stm32_spi_rw>
 800336c:	0e28      	lsrs	r0, r5, #24
 800336e:	f7ff ffb7 	bl	80032e0 <stm32_spi_rw>
 8003372:	f3c5 4007 	ubfx	r0, r5, #16, #8
 8003376:	f7ff ffb3 	bl	80032e0 <stm32_spi_rw>
 800337a:	f3c5 2007 	ubfx	r0, r5, #8, #8
 800337e:	f7ff ffaf 	bl	80032e0 <stm32_spi_rw>
 8003382:	b2e8      	uxtb	r0, r5
 8003384:	f7ff ffac 	bl	80032e0 <stm32_spi_rw>
 8003388:	2c40      	cmp	r4, #64	; 0x40
 800338a:	d004      	beq.n	8003396 <send_cmd+0x6a>
 800338c:	2c48      	cmp	r4, #72	; 0x48
 800338e:	bf0c      	ite	eq
 8003390:	2087      	moveq	r0, #135	; 0x87
 8003392:	2001      	movne	r0, #1
 8003394:	e000      	b.n	8003398 <send_cmd+0x6c>
 8003396:	2095      	movs	r0, #149	; 0x95
 8003398:	f7ff ffa2 	bl	80032e0 <stm32_spi_rw>
 800339c:	2c4c      	cmp	r4, #76	; 0x4c
 800339e:	d101      	bne.n	80033a4 <send_cmd+0x78>
 80033a0:	f7ff ffb0 	bl	8003304 <rcvr_spi>
 80033a4:	240a      	movs	r4, #10
 80033a6:	f7ff ffad 	bl	8003304 <rcvr_spi>
 80033aa:	0603      	lsls	r3, r0, #24
 80033ac:	d504      	bpl.n	80033b8 <send_cmd+0x8c>
 80033ae:	3c01      	subs	r4, #1
 80033b0:	f014 04ff 	ands.w	r4, r4, #255	; 0xff
 80033b4:	d1f7      	bne.n	80033a6 <send_cmd+0x7a>
 80033b6:	bd38      	pop	{r3, r4, r5, pc}
 80033b8:	bd38      	pop	{r3, r4, r5, pc}
 80033ba:	bf00      	nop
 80033bc:	40010c00 	andmi	r0, r1, r0, lsl #24

080033c0 <stm32_dma_transfer>:
 80033c0:	b570      	push	{r4, r5, r6, lr}
 80033c2:	4b2b      	ldr	r3, [pc, #172]	; (8003470 <stm32_dma_transfer+0xb0>)
 80033c4:	b08c      	sub	sp, #48	; 0x30
 80033c6:	2400      	movs	r4, #0
 80033c8:	4605      	mov	r5, r0
 80033ca:	482a      	ldr	r0, [pc, #168]	; (8003474 <stm32_dma_transfer+0xb4>)
 80033cc:	460e      	mov	r6, r1
 80033ce:	9301      	str	r3, [sp, #4]
 80033d0:	9407      	str	r4, [sp, #28]
 80033d2:	9408      	str	r4, [sp, #32]
 80033d4:	9405      	str	r4, [sp, #20]
 80033d6:	9204      	str	r2, [sp, #16]
 80033d8:	9409      	str	r4, [sp, #36]	; 0x24
 80033da:	940a      	str	r4, [sp, #40]	; 0x28
 80033dc:	940b      	str	r4, [sp, #44]	; 0x2c
 80033de:	f003 f895 	bl	800650c <DMA_DeInit>
 80033e2:	4825      	ldr	r0, [pc, #148]	; (8003478 <stm32_dma_transfer+0xb8>)
 80033e4:	f003 f892 	bl	800650c <DMA_DeInit>
 80033e8:	b16d      	cbz	r5, 8003406 <stm32_dma_transfer+0x46>
 80033ea:	2380      	movs	r3, #128	; 0x80
 80033ec:	4821      	ldr	r0, [pc, #132]	; (8003474 <stm32_dma_transfer+0xb4>)
 80033ee:	a901      	add	r1, sp, #4
 80033f0:	9602      	str	r6, [sp, #8]
 80033f2:	9403      	str	r4, [sp, #12]
 80033f4:	9306      	str	r3, [sp, #24]
 80033f6:	f003 f905 	bl	8006604 <DMA_Init>
 80033fa:	4820      	ldr	r0, [pc, #128]	; (800347c <stm32_dma_transfer+0xbc>)
 80033fc:	2110      	movs	r1, #16
 80033fe:	9002      	str	r0, [sp, #8]
 8003400:	9103      	str	r1, [sp, #12]
 8003402:	9406      	str	r4, [sp, #24]
 8003404:	e00c      	b.n	8003420 <stm32_dma_transfer+0x60>
 8003406:	481d      	ldr	r0, [pc, #116]	; (800347c <stm32_dma_transfer+0xbc>)
 8003408:	a901      	add	r1, sp, #4
 800340a:	9002      	str	r0, [sp, #8]
 800340c:	4819      	ldr	r0, [pc, #100]	; (8003474 <stm32_dma_transfer+0xb4>)
 800340e:	9503      	str	r5, [sp, #12]
 8003410:	9506      	str	r5, [sp, #24]
 8003412:	f003 f8f7 	bl	8006604 <DMA_Init>
 8003416:	2110      	movs	r1, #16
 8003418:	2280      	movs	r2, #128	; 0x80
 800341a:	9602      	str	r6, [sp, #8]
 800341c:	9103      	str	r1, [sp, #12]
 800341e:	9206      	str	r2, [sp, #24]
 8003420:	4815      	ldr	r0, [pc, #84]	; (8003478 <stm32_dma_transfer+0xb8>)
 8003422:	a901      	add	r1, sp, #4
 8003424:	f003 f8ee 	bl	8006604 <DMA_Init>
 8003428:	4812      	ldr	r0, [pc, #72]	; (8003474 <stm32_dma_transfer+0xb4>)
 800342a:	2101      	movs	r1, #1
 800342c:	f003 f916 	bl	800665c <DMA_Cmd>
 8003430:	4811      	ldr	r0, [pc, #68]	; (8003478 <stm32_dma_transfer+0xb8>)
 8003432:	2101      	movs	r1, #1
 8003434:	f003 f912 	bl	800665c <DMA_Cmd>
 8003438:	2201      	movs	r2, #1
 800343a:	4811      	ldr	r0, [pc, #68]	; (8003480 <stm32_dma_transfer+0xc0>)
 800343c:	2103      	movs	r1, #3
 800343e:	f004 f896 	bl	800756e <SPI_I2S_DMACmd>
 8003442:	4a10      	ldr	r2, [pc, #64]	; (8003484 <stm32_dma_transfer+0xc4>)
 8003444:	7813      	ldrb	r3, [r2, #0]
 8003446:	b98b      	cbnz	r3, 800346c <stm32_dma_transfer+0xac>
 8003448:	2020      	movs	r0, #32
 800344a:	f003 f91b 	bl	8006684 <DMA_GetFlagStatus>
 800344e:	2800      	cmp	r0, #0
 8003450:	d0fa      	beq.n	8003448 <stm32_dma_transfer+0x88>
 8003452:	4808      	ldr	r0, [pc, #32]	; (8003474 <stm32_dma_transfer+0xb4>)
 8003454:	2100      	movs	r1, #0
 8003456:	f003 f901 	bl	800665c <DMA_Cmd>
 800345a:	4807      	ldr	r0, [pc, #28]	; (8003478 <stm32_dma_transfer+0xb8>)
 800345c:	2100      	movs	r1, #0
 800345e:	f003 f8fd 	bl	800665c <DMA_Cmd>
 8003462:	4807      	ldr	r0, [pc, #28]	; (8003480 <stm32_dma_transfer+0xc0>)
 8003464:	2103      	movs	r1, #3
 8003466:	2200      	movs	r2, #0
 8003468:	f004 f881 	bl	800756e <SPI_I2S_DMACmd>
 800346c:	b00c      	add	sp, #48	; 0x30
 800346e:	bd70      	pop	{r4, r5, r6, pc}
 8003470:	4001300c 	andmi	r3, r1, ip
 8003474:	4002001c 	andmi	r0, r2, ip, lsl r0
 8003478:	40020030 	andmi	r0, r2, r0, lsr r0
 800347c:	200001d4 	ldrdcs	r0, [r0], -r4
 8003480:	40013000 	andmi	r3, r1, r0
 8003484:	200009a1 	andcs	r0, r0, r1, lsr #19

08003488 <xmit_datablock.part.1>:
 8003488:	4601      	mov	r1, r0
 800348a:	b508      	push	{r3, lr}
 800348c:	f44f 7200 	mov.w	r2, #512	; 0x200
 8003490:	2000      	movs	r0, #0
 8003492:	f7ff ff95 	bl	80033c0 <stm32_dma_transfer>
 8003496:	20ff      	movs	r0, #255	; 0xff
 8003498:	f7ff ff22 	bl	80032e0 <stm32_spi_rw>
 800349c:	20ff      	movs	r0, #255	; 0xff
 800349e:	f7ff ff1f 	bl	80032e0 <stm32_spi_rw>
 80034a2:	f7ff ff2f 	bl	8003304 <rcvr_spi>
 80034a6:	f000 001f 	and.w	r0, r0, #31
 80034aa:	1f41      	subs	r1, r0, #5
 80034ac:	424a      	negs	r2, r1
 80034ae:	eb52 0001 	adcs.w	r0, r2, r1
 80034b2:	bd08      	pop	{r3, pc}

080034b4 <release_spi>:
 80034b4:	b508      	push	{r3, lr}
 80034b6:	4804      	ldr	r0, [pc, #16]	; (80034c8 <release_spi+0x14>)
 80034b8:	f44f 4180 	mov.w	r1, #16384	; 0x4000
 80034bc:	f003 fa5f 	bl	800697e <GPIO_SetBits>
 80034c0:	e8bd 4008 	ldmia.w	sp!, {r3, lr}
 80034c4:	f7ff bf1e 	b.w	8003304 <rcvr_spi>
 80034c8:	40010c00 	andmi	r0, r1, r0, lsl #24

080034cc <wrapup_transaction>:
 80034cc:	b508      	push	{r3, lr}
 80034ce:	4807      	ldr	r0, [pc, #28]	; (80034ec <wrapup_transaction+0x20>)
 80034d0:	2100      	movs	r1, #0
 80034d2:	f003 f8c3 	bl	800665c <DMA_Cmd>
 80034d6:	4806      	ldr	r0, [pc, #24]	; (80034f0 <wrapup_transaction+0x24>)
 80034d8:	2100      	movs	r1, #0
 80034da:	f003 f8bf 	bl	800665c <DMA_Cmd>
 80034de:	4805      	ldr	r0, [pc, #20]	; (80034f4 <wrapup_transaction+0x28>)
 80034e0:	2103      	movs	r1, #3
 80034e2:	2200      	movs	r2, #0
 80034e4:	e8bd 4008 	ldmia.w	sp!, {r3, lr}
 80034e8:	f004 b841 	b.w	800756e <SPI_I2S_DMACmd>
 80034ec:	4002001c 	andmi	r0, r2, ip, lsl r0
 80034f0:	40020030 	andmi	r0, r2, r0, lsr r0
 80034f4:	40013000 	andmi	r3, r1, r0

080034f8 <stop_cmd>:
 80034f8:	204c      	movs	r0, #76	; 0x4c
 80034fa:	2100      	movs	r1, #0
 80034fc:	f7ff bf16 	b.w	800332c <send_cmd>

08003500 <rcvr_datablock>:
 8003500:	4b12      	ldr	r3, [pc, #72]	; (800354c <rcvr_datablock+0x4c>)
 8003502:	220a      	movs	r2, #10
 8003504:	b570      	push	{r4, r5, r6, lr}
 8003506:	4606      	mov	r6, r0
 8003508:	460c      	mov	r4, r1
 800350a:	601a      	str	r2, [r3, #0]
 800350c:	461d      	mov	r5, r3
 800350e:	f7ff fef9 	bl	8003304 <rcvr_spi>
 8003512:	28ff      	cmp	r0, #255	; 0xff
 8003514:	d103      	bne.n	800351e <rcvr_datablock+0x1e>
 8003516:	682a      	ldr	r2, [r5, #0]
 8003518:	2a00      	cmp	r2, #0
 800351a:	d1f8      	bne.n	800350e <rcvr_datablock+0xe>
 800351c:	e012      	b.n	8003544 <rcvr_datablock+0x44>
 800351e:	28fe      	cmp	r0, #254	; 0xfe
 8003520:	d110      	bne.n	8003544 <rcvr_datablock+0x44>
 8003522:	480b      	ldr	r0, [pc, #44]	; (8003550 <rcvr_datablock+0x50>)
 8003524:	7801      	ldrb	r1, [r0, #0]
 8003526:	4605      	mov	r5, r0
 8003528:	b101      	cbz	r1, 800352c <rcvr_datablock+0x2c>
 800352a:	3402      	adds	r4, #2
 800352c:	2001      	movs	r0, #1
 800352e:	4631      	mov	r1, r6
 8003530:	4622      	mov	r2, r4
 8003532:	f7ff ff45 	bl	80033c0 <stm32_dma_transfer>
 8003536:	782b      	ldrb	r3, [r5, #0]
 8003538:	b933      	cbnz	r3, 8003548 <rcvr_datablock+0x48>
 800353a:	f7ff fee3 	bl	8003304 <rcvr_spi>
 800353e:	f7ff fee1 	bl	8003304 <rcvr_spi>
 8003542:	e001      	b.n	8003548 <rcvr_datablock+0x48>
 8003544:	2000      	movs	r0, #0
 8003546:	bd70      	pop	{r4, r5, r6, pc}
 8003548:	2001      	movs	r0, #1
 800354a:	bd70      	pop	{r4, r5, r6, pc}
 800354c:	20000998 	mulcs	r0, r8, r9
 8003550:	200009a1 	andcs	r0, r0, r1, lsr #19

08003554 <disk_initialize>:
 8003554:	b573      	push	{r0, r1, r4, r5, r6, lr}
 8003556:	2800      	cmp	r0, #0
 8003558:	f040 8098 	bne.w	800368c <disk_initialize+0x138>
 800355c:	494c      	ldr	r1, [pc, #304]	; (8003690 <disk_initialize+0x13c>)
 800355e:	780a      	ldrb	r2, [r1, #0]
 8003560:	0790      	lsls	r0, r2, #30
 8003562:	d500      	bpl.n	8003566 <disk_initialize+0x12>
 8003564:	e08f      	b.n	8003686 <disk_initialize+0x132>
 8003566:	f7ff fe41 	bl	80031ec <power_on>
 800356a:	4b4a      	ldr	r3, [pc, #296]	; (8003694 <disk_initialize+0x140>)
 800356c:	8818      	ldrh	r0, [r3, #0]
 800356e:	b281      	uxth	r1, r0
 8003570:	f041 0438 	orr.w	r4, r1, #56	; 0x38
 8003574:	801c      	strh	r4, [r3, #0]
 8003576:	240a      	movs	r4, #10
 8003578:	f7ff fec4 	bl	8003304 <rcvr_spi>
 800357c:	1e62      	subs	r2, r4, #1
 800357e:	f012 04ff 	ands.w	r4, r2, #255	; 0xff
 8003582:	d1f9      	bne.n	8003578 <disk_initialize+0x24>
 8003584:	2040      	movs	r0, #64	; 0x40
 8003586:	4621      	mov	r1, r4
 8003588:	f7ff fed0 	bl	800332c <send_cmd>
 800358c:	2801      	cmp	r0, #1
 800358e:	d001      	beq.n	8003594 <disk_initialize+0x40>
 8003590:	2400      	movs	r4, #0
 8003592:	e063      	b.n	800365c <disk_initialize+0x108>
 8003594:	4d40      	ldr	r5, [pc, #256]	; (8003698 <disk_initialize+0x144>)
 8003596:	2364      	movs	r3, #100	; 0x64
 8003598:	2048      	movs	r0, #72	; 0x48
 800359a:	f44f 71d5 	mov.w	r1, #426	; 0x1aa
 800359e:	602b      	str	r3, [r5, #0]
 80035a0:	f7ff fec4 	bl	800332c <send_cmd>
 80035a4:	2801      	cmp	r0, #1
 80035a6:	d138      	bne.n	800361a <disk_initialize+0xc6>
 80035a8:	f7ff feac 	bl	8003304 <rcvr_spi>
 80035ac:	f10d 0c04 	add.w	ip, sp, #4
 80035b0:	f80c 0004 	strb.w	r0, [ip, r4]
 80035b4:	3401      	adds	r4, #1
 80035b6:	2c04      	cmp	r4, #4
 80035b8:	d1f6      	bne.n	80035a8 <disk_initialize+0x54>
 80035ba:	f89d 3006 	ldrb.w	r3, [sp, #6]
 80035be:	2b01      	cmp	r3, #1
 80035c0:	d1e6      	bne.n	8003590 <disk_initialize+0x3c>
 80035c2:	f89d 0007 	ldrb.w	r0, [sp, #7]
 80035c6:	28aa      	cmp	r0, #170	; 0xaa
 80035c8:	d1e2      	bne.n	8003590 <disk_initialize+0x3c>
 80035ca:	4c33      	ldr	r4, [pc, #204]	; (8003698 <disk_initialize+0x144>)
 80035cc:	6821      	ldr	r1, [r4, #0]
 80035ce:	b921      	cbnz	r1, 80035da <disk_initialize+0x86>
 80035d0:	4a31      	ldr	r2, [pc, #196]	; (8003698 <disk_initialize+0x144>)
 80035d2:	6813      	ldr	r3, [r2, #0]
 80035d4:	2b00      	cmp	r3, #0
 80035d6:	d0db      	beq.n	8003590 <disk_initialize+0x3c>
 80035d8:	e007      	b.n	80035ea <disk_initialize+0x96>
 80035da:	20e9      	movs	r0, #233	; 0xe9
 80035dc:	f04f 4180 	mov.w	r1, #1073741824	; 0x40000000
 80035e0:	f7ff fea4 	bl	800332c <send_cmd>
 80035e4:	2800      	cmp	r0, #0
 80035e6:	d1f1      	bne.n	80035cc <disk_initialize+0x78>
 80035e8:	e7f2      	b.n	80035d0 <disk_initialize+0x7c>
 80035ea:	207a      	movs	r0, #122	; 0x7a
 80035ec:	2100      	movs	r1, #0
 80035ee:	f7ff fe9d 	bl	800332c <send_cmd>
 80035f2:	2800      	cmp	r0, #0
 80035f4:	d1cc      	bne.n	8003590 <disk_initialize+0x3c>
 80035f6:	4604      	mov	r4, r0
 80035f8:	f7ff fe84 	bl	8003304 <rcvr_spi>
 80035fc:	f10d 0c04 	add.w	ip, sp, #4
 8003600:	f80c 0004 	strb.w	r0, [ip, r4]
 8003604:	3401      	adds	r4, #1
 8003606:	2c04      	cmp	r4, #4
 8003608:	d1f6      	bne.n	80035f8 <disk_initialize+0xa4>
 800360a:	f89d 0004 	ldrb.w	r0, [sp, #4]
 800360e:	f010 0f40 	tst.w	r0, #64	; 0x40
 8003612:	bf0c      	ite	eq
 8003614:	2404      	moveq	r4, #4
 8003616:	240c      	movne	r4, #12
 8003618:	e020      	b.n	800365c <disk_initialize+0x108>
 800361a:	4621      	mov	r1, r4
 800361c:	20e9      	movs	r0, #233	; 0xe9
 800361e:	f7ff fe85 	bl	800332c <send_cmd>
 8003622:	2801      	cmp	r0, #1
 8003624:	bf8c      	ite	hi
 8003626:	2401      	movhi	r4, #1
 8003628:	2402      	movls	r4, #2
 800362a:	bf8c      	ite	hi
 800362c:	2641      	movhi	r6, #65	; 0x41
 800362e:	26e9      	movls	r6, #233	; 0xe9
 8003630:	6828      	ldr	r0, [r5, #0]
 8003632:	b920      	cbnz	r0, 800363e <disk_initialize+0xea>
 8003634:	4918      	ldr	r1, [pc, #96]	; (8003698 <disk_initialize+0x144>)
 8003636:	680a      	ldr	r2, [r1, #0]
 8003638:	2a00      	cmp	r2, #0
 800363a:	d0a9      	beq.n	8003590 <disk_initialize+0x3c>
 800363c:	e006      	b.n	800364c <disk_initialize+0xf8>
 800363e:	4630      	mov	r0, r6
 8003640:	2100      	movs	r1, #0
 8003642:	f7ff fe73 	bl	800332c <send_cmd>
 8003646:	2800      	cmp	r0, #0
 8003648:	d1f2      	bne.n	8003630 <disk_initialize+0xdc>
 800364a:	e7f3      	b.n	8003634 <disk_initialize+0xe0>
 800364c:	2050      	movs	r0, #80	; 0x50
 800364e:	f44f 7100 	mov.w	r1, #512	; 0x200
 8003652:	f7ff fe6b 	bl	800332c <send_cmd>
 8003656:	2800      	cmp	r0, #0
 8003658:	bf18      	it	ne
 800365a:	2400      	movne	r4, #0
 800365c:	490f      	ldr	r1, [pc, #60]	; (800369c <disk_initialize+0x148>)
 800365e:	700c      	strb	r4, [r1, #0]
 8003660:	f7ff ff28 	bl	80034b4 <release_spi>
 8003664:	b12c      	cbz	r4, 8003672 <disk_initialize+0x11e>
 8003666:	4b0a      	ldr	r3, [pc, #40]	; (8003690 <disk_initialize+0x13c>)
 8003668:	f893 e000 	ldrb.w	lr, [r3]
 800366c:	f00e 02fe 	and.w	r2, lr, #254	; 0xfe
 8003670:	701a      	strb	r2, [r3, #0]
 8003672:	4808      	ldr	r0, [pc, #32]	; (8003694 <disk_initialize+0x140>)
 8003674:	8801      	ldrh	r1, [r0, #0]
 8003676:	b28b      	uxth	r3, r1
 8003678:	f023 0c38 	bic.w	ip, r3, #56	; 0x38
 800367c:	f04c 0e08 	orr.w	lr, ip, #8
 8003680:	4903      	ldr	r1, [pc, #12]	; (8003690 <disk_initialize+0x13c>)
 8003682:	f8a0 e000 	strh.w	lr, [r0]
 8003686:	780a      	ldrb	r2, [r1, #0]
 8003688:	b2d0      	uxtb	r0, r2
 800368a:	e000      	b.n	800368e <disk_initialize+0x13a>
 800368c:	2001      	movs	r0, #1
 800368e:	bd7c      	pop	{r2, r3, r4, r5, r6, pc}
 8003690:	200001d6 	ldrdcs	r0, [r0], -r6
 8003694:	40013000 	andmi	r3, r1, r0
 8003698:	20000998 	mulcs	r0, r8, r9
 800369c:	200009a0 	andcs	r0, r0, r0, lsr #19

080036a0 <disk_status>:
 80036a0:	b918      	cbnz	r0, 80036aa <disk_status+0xa>
 80036a2:	4b03      	ldr	r3, [pc, #12]	; (80036b0 <disk_status+0x10>)
 80036a4:	7818      	ldrb	r0, [r3, #0]
 80036a6:	b2c0      	uxtb	r0, r0
 80036a8:	4770      	bx	lr
 80036aa:	2001      	movs	r0, #1
 80036ac:	4770      	bx	lr
 80036ae:	bf00      	nop
 80036b0:	200001d6 	ldrdcs	r0, [r0], -r6

080036b4 <disk_read>:
 80036b4:	b570      	push	{r4, r5, r6, lr}
 80036b6:	460d      	mov	r5, r1
 80036b8:	461c      	mov	r4, r3
 80036ba:	4611      	mov	r1, r2
 80036bc:	2800      	cmp	r0, #0
 80036be:	d13c      	bne.n	800373a <disk_read+0x86>
 80036c0:	2b00      	cmp	r3, #0
 80036c2:	d03a      	beq.n	800373a <disk_read+0x86>
 80036c4:	4b20      	ldr	r3, [pc, #128]	; (8003748 <disk_read+0x94>)
 80036c6:	7818      	ldrb	r0, [r3, #0]
 80036c8:	07c2      	lsls	r2, r0, #31
 80036ca:	d438      	bmi.n	800373e <disk_read+0x8a>
 80036cc:	4a1f      	ldr	r2, [pc, #124]	; (800374c <disk_read+0x98>)
 80036ce:	f892 c000 	ldrb.w	ip, [r2]
 80036d2:	ea5f 730c 	movs.w	r3, ip, lsl #28
 80036d6:	bf58      	it	pl
 80036d8:	0249      	lslpl	r1, r1, #9
 80036da:	2c01      	cmp	r4, #1
 80036dc:	d10d      	bne.n	80036fa <disk_read+0x46>
 80036de:	2051      	movs	r0, #81	; 0x51
 80036e0:	f7ff fe24 	bl	800332c <send_cmd>
 80036e4:	bb00      	cbnz	r0, 8003728 <disk_read+0x74>
 80036e6:	4628      	mov	r0, r5
 80036e8:	f44f 7100 	mov.w	r1, #512	; 0x200
 80036ec:	f7ff ff08 	bl	8003500 <rcvr_datablock>
 80036f0:	f1d0 0401 	rsbs	r4, r0, #1
 80036f4:	bf38      	it	cc
 80036f6:	2400      	movcc	r4, #0
 80036f8:	e016      	b.n	8003728 <disk_read+0x74>
 80036fa:	2052      	movs	r0, #82	; 0x52
 80036fc:	f7ff fe16 	bl	800332c <send_cmd>
 8003700:	b990      	cbnz	r0, 8003728 <disk_read+0x74>
 8003702:	4e13      	ldr	r6, [pc, #76]	; (8003750 <disk_read+0x9c>)
 8003704:	4628      	mov	r0, r5
 8003706:	f44f 7100 	mov.w	r1, #512	; 0x200
 800370a:	f7ff fef9 	bl	8003500 <rcvr_datablock>
 800370e:	b138      	cbz	r0, 8003720 <disk_read+0x6c>
 8003710:	7831      	ldrb	r1, [r6, #0]
 8003712:	b9b1      	cbnz	r1, 8003742 <disk_read+0x8e>
 8003714:	3c01      	subs	r4, #1
 8003716:	f014 04ff 	ands.w	r4, r4, #255	; 0xff
 800371a:	f505 7500 	add.w	r5, r5, #512	; 0x200
 800371e:	d1f1      	bne.n	8003704 <disk_read+0x50>
 8003720:	204c      	movs	r0, #76	; 0x4c
 8003722:	2100      	movs	r1, #0
 8003724:	f7ff fe02 	bl	800332c <send_cmd>
 8003728:	4b09      	ldr	r3, [pc, #36]	; (8003750 <disk_read+0x9c>)
 800372a:	7818      	ldrb	r0, [r3, #0]
 800372c:	b908      	cbnz	r0, 8003732 <disk_read+0x7e>
 800372e:	f7ff fec1 	bl	80034b4 <release_spi>
 8003732:	1c20      	adds	r0, r4, #0
 8003734:	bf18      	it	ne
 8003736:	2001      	movne	r0, #1
 8003738:	bd70      	pop	{r4, r5, r6, pc}
 800373a:	2004      	movs	r0, #4
 800373c:	bd70      	pop	{r4, r5, r6, pc}
 800373e:	2003      	movs	r0, #3
 8003740:	bd70      	pop	{r4, r5, r6, pc}
 8003742:	2000      	movs	r0, #0
 8003744:	bd70      	pop	{r4, r5, r6, pc}
 8003746:	bf00      	nop
 8003748:	200001d6 	ldrdcs	r0, [r0], -r6
 800374c:	200009a0 	andcs	r0, r0, r0, lsr #19
 8003750:	200009a1 	andcs	r0, r0, r1, lsr #19

08003754 <disk_write>:
 8003754:	b570      	push	{r4, r5, r6, lr}
 8003756:	460d      	mov	r5, r1
 8003758:	4616      	mov	r6, r2
 800375a:	461c      	mov	r4, r3
 800375c:	2800      	cmp	r0, #0
 800375e:	d151      	bne.n	8003804 <disk_write+0xb0>
 8003760:	2b00      	cmp	r3, #0
 8003762:	d04f      	beq.n	8003804 <disk_write+0xb0>
 8003764:	4b2a      	ldr	r3, [pc, #168]	; (8003810 <disk_write+0xbc>)
 8003766:	781a      	ldrb	r2, [r3, #0]
 8003768:	07d2      	lsls	r2, r2, #31
 800376a:	d44d      	bmi.n	8003808 <disk_write+0xb4>
 800376c:	7818      	ldrb	r0, [r3, #0]
 800376e:	0740      	lsls	r0, r0, #29
 8003770:	d44c      	bmi.n	800380c <disk_write+0xb8>
 8003772:	4928      	ldr	r1, [pc, #160]	; (8003814 <disk_write+0xc0>)
 8003774:	f891 c000 	ldrb.w	ip, [r1]
 8003778:	ea5f 710c 	movs.w	r1, ip, lsl #28
 800377c:	bf58      	it	pl
 800377e:	0276      	lslpl	r6, r6, #9
 8003780:	2c01      	cmp	r4, #1
 8003782:	d115      	bne.n	80037b0 <disk_write+0x5c>
 8003784:	2058      	movs	r0, #88	; 0x58
 8003786:	4631      	mov	r1, r6
 8003788:	f7ff fdd0 	bl	800332c <send_cmd>
 800378c:	b108      	cbz	r0, 8003792 <disk_write+0x3e>
 800378e:	2401      	movs	r4, #1
 8003790:	e032      	b.n	80037f8 <disk_write+0xa4>
 8003792:	f7ff fdbb 	bl	800330c <wait_ready>
 8003796:	28ff      	cmp	r0, #255	; 0xff
 8003798:	d1f9      	bne.n	800378e <disk_write+0x3a>
 800379a:	20fe      	movs	r0, #254	; 0xfe
 800379c:	f7ff fda0 	bl	80032e0 <stm32_spi_rw>
 80037a0:	4628      	mov	r0, r5
 80037a2:	f7ff fe71 	bl	8003488 <xmit_datablock.part.1>
 80037a6:	f1d0 0401 	rsbs	r4, r0, #1
 80037aa:	bf38      	it	cc
 80037ac:	2400      	movcc	r4, #0
 80037ae:	e023      	b.n	80037f8 <disk_write+0xa4>
 80037b0:	f01c 0f06 	tst.w	ip, #6
 80037b4:	d003      	beq.n	80037be <disk_write+0x6a>
 80037b6:	20d7      	movs	r0, #215	; 0xd7
 80037b8:	4621      	mov	r1, r4
 80037ba:	f7ff fdb7 	bl	800332c <send_cmd>
 80037be:	2059      	movs	r0, #89	; 0x59
 80037c0:	4631      	mov	r1, r6
 80037c2:	f7ff fdb3 	bl	800332c <send_cmd>
 80037c6:	b9b8      	cbnz	r0, 80037f8 <disk_write+0xa4>
 80037c8:	f7ff fda0 	bl	800330c <wait_ready>
 80037cc:	28ff      	cmp	r0, #255	; 0xff
 80037ce:	d10c      	bne.n	80037ea <disk_write+0x96>
 80037d0:	20fc      	movs	r0, #252	; 0xfc
 80037d2:	f7ff fd85 	bl	80032e0 <stm32_spi_rw>
 80037d6:	4628      	mov	r0, r5
 80037d8:	f7ff fe56 	bl	8003488 <xmit_datablock.part.1>
 80037dc:	b128      	cbz	r0, 80037ea <disk_write+0x96>
 80037de:	3c01      	subs	r4, #1
 80037e0:	f014 04ff 	ands.w	r4, r4, #255	; 0xff
 80037e4:	f505 7500 	add.w	r5, r5, #512	; 0x200
 80037e8:	d1ee      	bne.n	80037c8 <disk_write+0x74>
 80037ea:	f7ff fd8f 	bl	800330c <wait_ready>
 80037ee:	28ff      	cmp	r0, #255	; 0xff
 80037f0:	d1cd      	bne.n	800378e <disk_write+0x3a>
 80037f2:	20fd      	movs	r0, #253	; 0xfd
 80037f4:	f7ff fd74 	bl	80032e0 <stm32_spi_rw>
 80037f8:	f7ff fe5c 	bl	80034b4 <release_spi>
 80037fc:	1c20      	adds	r0, r4, #0
 80037fe:	bf18      	it	ne
 8003800:	2001      	movne	r0, #1
 8003802:	bd70      	pop	{r4, r5, r6, pc}
 8003804:	2004      	movs	r0, #4
 8003806:	bd70      	pop	{r4, r5, r6, pc}
 8003808:	2003      	movs	r0, #3
 800380a:	bd70      	pop	{r4, r5, r6, pc}
 800380c:	2002      	movs	r0, #2
 800380e:	bd70      	pop	{r4, r5, r6, pc}
 8003810:	200001d6 	ldrdcs	r0, [r0], -r6
 8003814:	200009a0 	andcs	r0, r0, r0, lsr #19

08003818 <disk_ioctl>:
 8003818:	b57f      	push	{r0, r1, r2, r3, r4, r5, r6, lr}
 800381a:	4615      	mov	r5, r2
 800381c:	4604      	mov	r4, r0
 800381e:	2800      	cmp	r0, #0
 8003820:	f040 8136 	bne.w	8003a90 <disk_ioctl+0x278>
 8003824:	2905      	cmp	r1, #5
 8003826:	d137      	bne.n	8003898 <disk_ioctl+0x80>
 8003828:	7811      	ldrb	r1, [r2, #0]
 800382a:	2901      	cmp	r1, #1
 800382c:	d02e      	beq.n	800388c <disk_ioctl+0x74>
 800382e:	d303      	bcc.n	8003838 <disk_ioctl+0x20>
 8003830:	2902      	cmp	r1, #2
 8003832:	f040 812d 	bne.w	8003a90 <disk_ioctl+0x278>
 8003836:	e02c      	b.n	8003892 <disk_ioctl+0x7a>
 8003838:	4c98      	ldr	r4, [pc, #608]	; (8003a9c <disk_ioctl+0x284>)
 800383a:	7820      	ldrb	r0, [r4, #0]
 800383c:	07c4      	lsls	r4, r0, #31
 800383e:	d408      	bmi.n	8003852 <disk_ioctl+0x3a>
 8003840:	f44f 4180 	mov.w	r1, #16384	; 0x4000
 8003844:	4896      	ldr	r0, [pc, #600]	; (8003aa0 <disk_ioctl+0x288>)
 8003846:	f003 f89c 	bl	8006982 <GPIO_ResetBits>
 800384a:	f7ff fd5f 	bl	800330c <wait_ready>
 800384e:	f7ff fe31 	bl	80034b4 <release_spi>
 8003852:	4894      	ldr	r0, [pc, #592]	; (8003aa4 <disk_ioctl+0x28c>)
 8003854:	f003 fdae 	bl	80073b4 <SPI_I2S_DeInit>
 8003858:	4892      	ldr	r0, [pc, #584]	; (8003aa4 <disk_ioctl+0x28c>)
 800385a:	2100      	movs	r1, #0
 800385c:	f003 fe60 	bl	8007520 <SPI_Cmd>
 8003860:	f44f 5080 	mov.w	r0, #4096	; 0x1000
 8003864:	2100      	movs	r1, #0
 8003866:	f003 fc75 	bl	8007154 <RCC_APB2PeriphClockCmd>
 800386a:	2128      	movs	r1, #40	; 0x28
 800386c:	22e0      	movs	r2, #224	; 0xe0
 800386e:	f88d 1003 	strb.w	r1, [sp, #3]
 8003872:	488d      	ldr	r0, [pc, #564]	; (8003aa8 <disk_ioctl+0x290>)
 8003874:	4669      	mov	r1, sp
 8003876:	f8ad 2000 	strh.w	r2, [sp]
 800387a:	f003 f816 	bl	80068aa <GPIO_Init>
 800387e:	4b87      	ldr	r3, [pc, #540]	; (8003a9c <disk_ioctl+0x284>)
 8003880:	781c      	ldrb	r4, [r3, #0]
 8003882:	f044 0001 	orr.w	r0, r4, #1
 8003886:	7018      	strb	r0, [r3, #0]
 8003888:	2400      	movs	r4, #0
 800388a:	e104      	b.n	8003a96 <disk_ioctl+0x27e>
 800388c:	f7ff fcae 	bl	80031ec <power_on>
 8003890:	e101      	b.n	8003a96 <disk_ioctl+0x27e>
 8003892:	2301      	movs	r3, #1
 8003894:	7053      	strb	r3, [r2, #1]
 8003896:	e0fe      	b.n	8003a96 <disk_ioctl+0x27e>
 8003898:	4b80      	ldr	r3, [pc, #512]	; (8003a9c <disk_ioctl+0x284>)
 800389a:	7818      	ldrb	r0, [r3, #0]
 800389c:	07c0      	lsls	r0, r0, #31
 800389e:	f100 80f9 	bmi.w	8003a94 <disk_ioctl+0x27c>
 80038a2:	290e      	cmp	r1, #14
 80038a4:	f200 80f0 	bhi.w	8003a88 <disk_ioctl+0x270>
 80038a8:	e8df f011 	tbh	[pc, r1, lsl #1]
 80038ac:	001b000f 	andseq	r0, fp, pc
 80038b0:	005f005a 	subseq	r0, pc, sl, asr r0	; <UNPREDICTABLE>
 80038b4:	00ee00ee 	rsceq	r0, lr, lr, ror #1
 80038b8:	00ee00ee 	rsceq	r0, lr, lr, ror #1
 80038bc:	00ee00ee 	rsceq	r0, lr, lr, ror #1
 80038c0:	00c100bc 	strheq	r0, [r1], #12
 80038c4:	00cd00c3 	sbceq	r0, sp, r3, asr #1
 80038c8:	487500dc 	ldmdami	r5!, {r2, r3, r4, r6, r7}^
 80038cc:	f44f 4180 	mov.w	r1, #16384	; 0x4000
 80038d0:	f003 f857 	bl	8006982 <GPIO_ResetBits>
 80038d4:	f7ff fd1a 	bl	800330c <wait_ready>
 80038d8:	f1b0 04ff 	subs.w	r4, r0, #255	; 0xff
 80038dc:	bf18      	it	ne
 80038de:	2401      	movne	r4, #1
 80038e0:	e0d3      	b.n	8003a8a <disk_ioctl+0x272>
 80038e2:	2049      	movs	r0, #73	; 0x49
 80038e4:	2100      	movs	r1, #0
 80038e6:	f7ff fd21 	bl	800332c <send_cmd>
 80038ea:	4604      	mov	r4, r0
 80038ec:	b108      	cbz	r0, 80038f2 <disk_ioctl+0xda>
 80038ee:	2401      	movs	r4, #1
 80038f0:	e0cb      	b.n	8003a8a <disk_ioctl+0x272>
 80038f2:	4668      	mov	r0, sp
 80038f4:	2110      	movs	r1, #16
 80038f6:	f7ff fe03 	bl	8003500 <rcvr_datablock>
 80038fa:	2800      	cmp	r0, #0
 80038fc:	d0f7      	beq.n	80038ee <disk_ioctl+0xd6>
 80038fe:	f89d 3000 	ldrb.w	r3, [sp]
 8003902:	f89d 0008 	ldrb.w	r0, [sp, #8]
 8003906:	0999      	lsrs	r1, r3, #6
 8003908:	2901      	cmp	r1, #1
 800390a:	d108      	bne.n	800391e <disk_ioctl+0x106>
 800390c:	f89d c009 	ldrb.w	ip, [sp, #9]
 8003910:	f10c 0301 	add.w	r3, ip, #1
 8003914:	eb03 2000 	add.w	r0, r3, r0, lsl #8
 8003918:	b282      	uxth	r2, r0
 800391a:	0292      	lsls	r2, r2, #10
 800391c:	e049      	b.n	80039b2 <disk_ioctl+0x19a>
 800391e:	f89d c007 	ldrb.w	ip, [sp, #7]
 8003922:	f89d 3006 	ldrb.w	r3, [sp, #6]
 8003926:	ea4f 028c 	mov.w	r2, ip, lsl #2
 800392a:	eb02 1e90 	add.w	lr, r2, r0, lsr #6
 800392e:	f10e 0101 	add.w	r1, lr, #1
 8003932:	f003 0003 	and.w	r0, r3, #3
 8003936:	f89d 2005 	ldrb.w	r2, [sp, #5]
 800393a:	eb01 2c80 	add.w	ip, r1, r0, lsl #10
 800393e:	f89d 100a 	ldrb.w	r1, [sp, #10]
 8003942:	f89d 0009 	ldrb.w	r0, [sp, #9]
 8003946:	f002 0e0f 	and.w	lr, r2, #15
 800394a:	eb0e 13d1 	add.w	r3, lr, r1, lsr #7
 800394e:	f000 0203 	and.w	r2, r0, #3
 8003952:	eb03 0e42 	add.w	lr, r3, r2, lsl #1
 8003956:	f1ae 0107 	sub.w	r1, lr, #7
 800395a:	fa0c f201 	lsl.w	r2, ip, r1
 800395e:	e028      	b.n	80039b2 <disk_ioctl+0x19a>
 8003960:	f44f 7e00 	mov.w	lr, #512	; 0x200
 8003964:	f8a2 e000 	strh.w	lr, [r2]
 8003968:	e05f      	b.n	8003a2a <disk_ioctl+0x212>
 800396a:	4e50      	ldr	r6, [pc, #320]	; (8003aac <disk_ioctl+0x294>)
 800396c:	f896 c000 	ldrb.w	ip, [r6]
 8003970:	f00c 0304 	and.w	r3, ip, #4
 8003974:	f003 01ff 	and.w	r1, r3, #255	; 0xff
 8003978:	b1eb      	cbz	r3, 80039b6 <disk_ioctl+0x19e>
 800397a:	20cd      	movs	r0, #205	; 0xcd
 800397c:	2100      	movs	r1, #0
 800397e:	f7ff fcd5 	bl	800332c <send_cmd>
 8003982:	2800      	cmp	r0, #0
 8003984:	d1b3      	bne.n	80038ee <disk_ioctl+0xd6>
 8003986:	f7ff fcbd 	bl	8003304 <rcvr_spi>
 800398a:	4668      	mov	r0, sp
 800398c:	2110      	movs	r1, #16
 800398e:	f7ff fdb7 	bl	8003500 <rcvr_datablock>
 8003992:	2800      	cmp	r0, #0
 8003994:	d0ab      	beq.n	80038ee <disk_ioctl+0xd6>
 8003996:	2430      	movs	r4, #48	; 0x30
 8003998:	3c01      	subs	r4, #1
 800399a:	f7ff fcb3 	bl	8003304 <rcvr_spi>
 800399e:	f014 04ff 	ands.w	r4, r4, #255	; 0xff
 80039a2:	d1f9      	bne.n	8003998 <disk_ioctl+0x180>
 80039a4:	f89d 100a 	ldrb.w	r1, [sp, #10]
 80039a8:	f04f 0c10 	mov.w	ip, #16
 80039ac:	0908      	lsrs	r0, r1, #4
 80039ae:	fa0c f200 	lsl.w	r2, ip, r0
 80039b2:	602a      	str	r2, [r5, #0]
 80039b4:	e069      	b.n	8003a8a <disk_ioctl+0x272>
 80039b6:	2049      	movs	r0, #73	; 0x49
 80039b8:	f7ff fcb8 	bl	800332c <send_cmd>
 80039bc:	4604      	mov	r4, r0
 80039be:	2800      	cmp	r0, #0
 80039c0:	d195      	bne.n	80038ee <disk_ioctl+0xd6>
 80039c2:	4668      	mov	r0, sp
 80039c4:	2110      	movs	r1, #16
 80039c6:	f7ff fd9b 	bl	8003500 <rcvr_datablock>
 80039ca:	2800      	cmp	r0, #0
 80039cc:	d08f      	beq.n	80038ee <disk_ioctl+0xd6>
 80039ce:	7830      	ldrb	r0, [r6, #0]
 80039d0:	f89d 100a 	ldrb.w	r1, [sp, #10]
 80039d4:	f000 0302 	and.w	r3, r0, #2
 80039d8:	f003 0eff 	and.w	lr, r3, #255	; 0xff
 80039dc:	b18b      	cbz	r3, 8003a02 <disk_ioctl+0x1ea>
 80039de:	f89d e00b 	ldrb.w	lr, [sp, #11]
 80039e2:	f89d 200d 	ldrb.w	r2, [sp, #13]
 80039e6:	f001 003f 	and.w	r0, r1, #63	; 0x3f
 80039ea:	ea4f 1cde 	mov.w	ip, lr, lsr #7
 80039ee:	eb0c 0340 	add.w	r3, ip, r0, lsl #1
 80039f2:	0990      	lsrs	r0, r2, #6
 80039f4:	1c59      	adds	r1, r3, #1
 80039f6:	f100 3eff 	add.w	lr, r0, #4294967295
 80039fa:	fa01 f30e 	lsl.w	r3, r1, lr
 80039fe:	602b      	str	r3, [r5, #0]
 8003a00:	e043      	b.n	8003a8a <disk_ioctl+0x272>
 8003a02:	f89d 400b 	ldrb.w	r4, [sp, #11]
 8003a06:	f3c1 0284 	ubfx	r2, r1, #2, #5
 8003a0a:	f004 0003 	and.w	r0, r4, #3
 8003a0e:	0963      	lsrs	r3, r4, #5
 8003a10:	eb03 01c0 	add.w	r1, r3, r0, lsl #3
 8003a14:	1c4c      	adds	r4, r1, #1
 8003a16:	f102 0c01 	add.w	ip, r2, #1
 8003a1a:	fb04 f20c 	mul.w	r2, r4, ip
 8003a1e:	4674      	mov	r4, lr
 8003a20:	602a      	str	r2, [r5, #0]
 8003a22:	e032      	b.n	8003a8a <disk_ioctl+0x272>
 8003a24:	4921      	ldr	r1, [pc, #132]	; (8003aac <disk_ioctl+0x294>)
 8003a26:	780a      	ldrb	r2, [r1, #0]
 8003a28:	702a      	strb	r2, [r5, #0]
 8003a2a:	2400      	movs	r4, #0
 8003a2c:	e02d      	b.n	8003a8a <disk_ioctl+0x272>
 8003a2e:	2049      	movs	r0, #73	; 0x49
 8003a30:	e000      	b.n	8003a34 <disk_ioctl+0x21c>
 8003a32:	204a      	movs	r0, #74	; 0x4a
 8003a34:	2100      	movs	r1, #0
 8003a36:	f7ff fc79 	bl	800332c <send_cmd>
 8003a3a:	2800      	cmp	r0, #0
 8003a3c:	f47f af57 	bne.w	80038ee <disk_ioctl+0xd6>
 8003a40:	4628      	mov	r0, r5
 8003a42:	2110      	movs	r1, #16
 8003a44:	e019      	b.n	8003a7a <disk_ioctl+0x262>
 8003a46:	207a      	movs	r0, #122	; 0x7a
 8003a48:	2100      	movs	r1, #0
 8003a4a:	f7ff fc6f 	bl	800332c <send_cmd>
 8003a4e:	2800      	cmp	r0, #0
 8003a50:	f47f af4d 	bne.w	80038ee <disk_ioctl+0xd6>
